

Microchip MPLAB XC8 Assembler V2.31 build 20201012212115 
                                                                                               Tue Feb 09 22:17:46 2021

Microchip MPLAB XC8 C Compiler v2.31 (Free license) build 20201012212115 Og1 
     1                           	processor	16F887
     2                           	pagewidth 120
     3                           	opt	flic
     4                           	psect	strings,global,class=STRING,delta=2,noexec
     5                           	psect	cinit,global,class=CODE,merge=1,delta=2
     6                           	psect	bssCOMMON,global,class=COMMON,space=1,delta=1,noexec
     7                           	psect	bssBANK1,global,class=BANK1,space=1,delta=1,noexec
     8                           	psect	clrtext,global,class=CODE,delta=2
     9                           	psect	cstackBANK1,global,class=BANK1,space=1,delta=1,noexec
    10                           	psect	cstackCOMMON,global,class=COMMON,space=1,delta=1,noexec
    11                           	psect	cstackBANK0,global,class=BANK0,space=1,delta=1,noexec
    12                           	psect	maintext,global,class=CODE,split=1,delta=2
    13                           	psect	text1,local,class=CODE,merge=1,delta=2
    14                           	psect	text2,local,class=CODE,merge=1,delta=2
    15                           	psect	text3,local,class=CODE,merge=1,delta=2
    16                           	psect	text4,local,class=CODE,merge=1,delta=2,group=1
    17                           	psect	text5,local,class=CODE,merge=1,delta=2,group=1
    18                           	psect	text6,local,class=CODE,merge=1,delta=2,group=1
    19                           	psect	text7,local,class=CODE,merge=1,delta=2,group=1
    20                           	psect	text8,local,class=CODE,merge=1,delta=2,group=1
    21                           	psect	text9,local,class=CODE,merge=1,delta=2,group=1
    22                           	psect	text10,local,class=CODE,merge=1,delta=2,group=1
    23                           	psect	text11,local,class=CODE,merge=1,delta=2,group=1
    24                           	psect	text12,local,class=CODE,merge=1,delta=2,group=1
    25                           	psect	text13,local,class=CODE,merge=1,delta=2,group=1
    26                           	psect	text14,local,class=CODE,merge=1,delta=2
    27                           	psect	text15,local,class=CODE,merge=1,delta=2
    28                           	psect	text16,local,class=CODE,merge=1,delta=2
    29                           	psect	text17,local,class=CODE,merge=1,delta=2
    30                           	psect	text18,local,class=CODE,merge=1,delta=2
    31                           	psect	text19,local,class=CODE,merge=1,delta=2
    32                           	psect	text20,local,class=CODE,merge=1,delta=2
    33                           	psect	text21,local,class=CODE,merge=1,delta=2
    34                           	psect	text22,local,class=CODE,merge=1,delta=2
    35                           	psect	intentry,global,class=CODE,delta=2
    36                           	psect	config,global,abs,ovrld,class=CONFIG,space=4,delta=2,noexec
    37                           	dabs	1,0x7E,2
    38  0000                     
    39                           ; Version 2.31
    40                           ; Generated 13/10/2020 GMT
    41                           ; 
    42                           ; Copyright © 2020, Microchip Technology Inc. and its subsidiaries ("Microchip")
    43                           ; All rights reserved.
    44                           ; 
    45                           ; This software is developed by Microchip Technology Inc. and its subsidiaries ("Microch
      +                          ip").
    46                           ; 
    47                           ; Redistribution and use in source and binary forms, with or without modification, are
    48                           ; permitted provided that the following conditions are met:
    49                           ; 
    50                           ;     1. Redistributions of source code must retain the above copyright notice, this lis
      +                          t of
    51                           ;        conditions and the following disclaimer.
    52                           ; 
    53                           ;     2. Redistributions in binary form must reproduce the above copyright notice, this 
      +                          list
    54                           ;        of conditions and the following disclaimer in the documentation and/or other
    55                           ;        materials provided with the distribution. Publication is not required when
    56                           ;        this file is used in an embedded application.
    57                           ; 
    58                           ;     3. Microchip's name may not be used to endorse or promote products derived from th
      +                          is
    59                           ;        software without specific prior written permission.
    60                           ; 
    61                           ; THIS SOFTWARE IS PROVIDED BY MICROCHIP "AS IS" AND ANY EXPRESS OR IMPLIED WARRANTIES,
    62                           ; INCLUDING, BUT NOT LIMITED TO, THE IMPLIED WARRANTIES OF MERCHANTABILITY AND FITNESS F
      +                          OR
    63                           ; PURPOSE ARE DISCLAIMED.  IN NO EVENT SHALL MICROCHIP BE LIABLE FOR ANY DIRECT, INDIREC
      +                          T,
    64                           ; INCIDENTAL, SPECIAL, EXEMPLARY, OR CONSEQUENTIAL DAMAGES (INCLUDING BUT NOT LIMITED TO
    65                           ; PROCUREMENT OF SUBSTITUTE GOODS OR SERVICES; LOSS OF USE, DATA OR PROFITS; OR BUSINESS
    66                           ; INTERRUPTION) HOWSOEVER CAUSED AND ON ANY THEORY OF LIABILITY, WHETHER IN CONTRACT, ST
      +                          RICT
    67                           ; LIABILITY, OR TORT (INCLUDING NEGLIGENCE OR OTHERWISE) ARISING IN ANY WAY OUT OF THE U
      +                          SE OF
    68                           ; THIS SOFTWARE, EVEN IF ADVISED OF THE POSSIBILITY OF SUCH DAMAGE.
    69                           ; 
    70                           ; 
    71                           ; Code-generator required, PIC16F887 Definitions
    72                           ; 
    73                           ; SFR Addresses
    74  0000                     	;# 
    75  0001                     	;# 
    76  0002                     	;# 
    77  0003                     	;# 
    78  0004                     	;# 
    79  0005                     	;# 
    80  0006                     	;# 
    81  0007                     	;# 
    82  0008                     	;# 
    83  0009                     	;# 
    84  000A                     	;# 
    85  000B                     	;# 
    86  000C                     	;# 
    87  000D                     	;# 
    88  000E                     	;# 
    89  000E                     	;# 
    90  000F                     	;# 
    91  0010                     	;# 
    92  0011                     	;# 
    93  0012                     	;# 
    94  0013                     	;# 
    95  0014                     	;# 
    96  0015                     	;# 
    97  0015                     	;# 
    98  0016                     	;# 
    99  0017                     	;# 
   100  0018                     	;# 
   101  0019                     	;# 
   102  001A                     	;# 
   103  001B                     	;# 
   104  001B                     	;# 
   105  001C                     	;# 
   106  001D                     	;# 
   107  001E                     	;# 
   108  001F                     	;# 
   109  0081                     	;# 
   110  0085                     	;# 
   111  0086                     	;# 
   112  0087                     	;# 
   113  0088                     	;# 
   114  0089                     	;# 
   115  008C                     	;# 
   116  008D                     	;# 
   117  008E                     	;# 
   118  008F                     	;# 
   119  0090                     	;# 
   120  0091                     	;# 
   121  0092                     	;# 
   122  0093                     	;# 
   123  0093                     	;# 
   124  0093                     	;# 
   125  0094                     	;# 
   126  0095                     	;# 
   127  0096                     	;# 
   128  0097                     	;# 
   129  0098                     	;# 
   130  0099                     	;# 
   131  009A                     	;# 
   132  009B                     	;# 
   133  009C                     	;# 
   134  009D                     	;# 
   135  009E                     	;# 
   136  009F                     	;# 
   137  0105                     	;# 
   138  0107                     	;# 
   139  0108                     	;# 
   140  0109                     	;# 
   141  010C                     	;# 
   142  010C                     	;# 
   143  010D                     	;# 
   144  010E                     	;# 
   145  010F                     	;# 
   146  0185                     	;# 
   147  0187                     	;# 
   148  0188                     	;# 
   149  0189                     	;# 
   150  018C                     	;# 
   151  018D                     	;# 
   152  0000                     	;# 
   153  0001                     	;# 
   154  0002                     	;# 
   155  0003                     	;# 
   156  0004                     	;# 
   157  0005                     	;# 
   158  0006                     	;# 
   159  0007                     	;# 
   160  0008                     	;# 
   161  0009                     	;# 
   162  000A                     	;# 
   163  000B                     	;# 
   164  000C                     	;# 
   165  000D                     	;# 
   166  000E                     	;# 
   167  000E                     	;# 
   168  000F                     	;# 
   169  0010                     	;# 
   170  0011                     	;# 
   171  0012                     	;# 
   172  0013                     	;# 
   173  0014                     	;# 
   174  0015                     	;# 
   175  0015                     	;# 
   176  0016                     	;# 
   177  0017                     	;# 
   178  0018                     	;# 
   179  0019                     	;# 
   180  001A                     	;# 
   181  001B                     	;# 
   182  001B                     	;# 
   183  001C                     	;# 
   184  001D                     	;# 
   185  001E                     	;# 
   186  001F                     	;# 
   187  0081                     	;# 
   188  0085                     	;# 
   189  0086                     	;# 
   190  0087                     	;# 
   191  0088                     	;# 
   192  0089                     	;# 
   193  008C                     	;# 
   194  008D                     	;# 
   195  008E                     	;# 
   196  008F                     	;# 
   197  0090                     	;# 
   198  0091                     	;# 
   199  0092                     	;# 
   200  0093                     	;# 
   201  0093                     	;# 
   202  0093                     	;# 
   203  0094                     	;# 
   204  0095                     	;# 
   205  0096                     	;# 
   206  0097                     	;# 
   207  0098                     	;# 
   208  0099                     	;# 
   209  009A                     	;# 
   210  009B                     	;# 
   211  009C                     	;# 
   212  009D                     	;# 
   213  009E                     	;# 
   214  009F                     	;# 
   215  0105                     	;# 
   216  0107                     	;# 
   217  0108                     	;# 
   218  0109                     	;# 
   219  010C                     	;# 
   220  010C                     	;# 
   221  010D                     	;# 
   222  010E                     	;# 
   223  010F                     	;# 
   224  0185                     	;# 
   225  0187                     	;# 
   226  0188                     	;# 
   227  0189                     	;# 
   228  018C                     	;# 
   229  018D                     	;# 
   230  0000                     	;# 
   231  0001                     	;# 
   232  0002                     	;# 
   233  0003                     	;# 
   234  0004                     	;# 
   235  0005                     	;# 
   236  0006                     	;# 
   237  0007                     	;# 
   238  0008                     	;# 
   239  0009                     	;# 
   240  000A                     	;# 
   241  000B                     	;# 
   242  000C                     	;# 
   243  000D                     	;# 
   244  000E                     	;# 
   245  000E                     	;# 
   246  000F                     	;# 
   247  0010                     	;# 
   248  0011                     	;# 
   249  0012                     	;# 
   250  0013                     	;# 
   251  0014                     	;# 
   252  0015                     	;# 
   253  0015                     	;# 
   254  0016                     	;# 
   255  0017                     	;# 
   256  0018                     	;# 
   257  0019                     	;# 
   258  001A                     	;# 
   259  001B                     	;# 
   260  001B                     	;# 
   261  001C                     	;# 
   262  001D                     	;# 
   263  001E                     	;# 
   264  001F                     	;# 
   265  0081                     	;# 
   266  0085                     	;# 
   267  0086                     	;# 
   268  0087                     	;# 
   269  0088                     	;# 
   270  0089                     	;# 
   271  008C                     	;# 
   272  008D                     	;# 
   273  008E                     	;# 
   274  008F                     	;# 
   275  0090                     	;# 
   276  0091                     	;# 
   277  0092                     	;# 
   278  0093                     	;# 
   279  0093                     	;# 
   280  0093                     	;# 
   281  0094                     	;# 
   282  0095                     	;# 
   283  0096                     	;# 
   284  0097                     	;# 
   285  0098                     	;# 
   286  0099                     	;# 
   287  009A                     	;# 
   288  009B                     	;# 
   289  009C                     	;# 
   290  009D                     	;# 
   291  009E                     	;# 
   292  009F                     	;# 
   293  0105                     	;# 
   294  0107                     	;# 
   295  0108                     	;# 
   296  0109                     	;# 
   297  010C                     	;# 
   298  010C                     	;# 
   299  010D                     	;# 
   300  010E                     	;# 
   301  010F                     	;# 
   302  0185                     	;# 
   303  0187                     	;# 
   304  0188                     	;# 
   305  0189                     	;# 
   306  018C                     	;# 
   307  018D                     	;# 
   308  0000                     	;# 
   309  0001                     	;# 
   310  0002                     	;# 
   311  0003                     	;# 
   312  0004                     	;# 
   313  0005                     	;# 
   314  0006                     	;# 
   315  0007                     	;# 
   316  0008                     	;# 
   317  0009                     	;# 
   318  000A                     	;# 
   319  000B                     	;# 
   320  000C                     	;# 
   321  000D                     	;# 
   322  000E                     	;# 
   323  000E                     	;# 
   324  000F                     	;# 
   325  0010                     	;# 
   326  0011                     	;# 
   327  0012                     	;# 
   328  0013                     	;# 
   329  0014                     	;# 
   330  0015                     	;# 
   331  0015                     	;# 
   332  0016                     	;# 
   333  0017                     	;# 
   334  0018                     	;# 
   335  0019                     	;# 
   336  001A                     	;# 
   337  001B                     	;# 
   338  001B                     	;# 
   339  001C                     	;# 
   340  001D                     	;# 
   341  001E                     	;# 
   342  001F                     	;# 
   343  0081                     	;# 
   344  0085                     	;# 
   345  0086                     	;# 
   346  0087                     	;# 
   347  0088                     	;# 
   348  0089                     	;# 
   349  008C                     	;# 
   350  008D                     	;# 
   351  008E                     	;# 
   352  008F                     	;# 
   353  0090                     	;# 
   354  0091                     	;# 
   355  0092                     	;# 
   356  0093                     	;# 
   357  0093                     	;# 
   358  0093                     	;# 
   359  0094                     	;# 
   360  0095                     	;# 
   361  0096                     	;# 
   362  0097                     	;# 
   363  0098                     	;# 
   364  0099                     	;# 
   365  009A                     	;# 
   366  009B                     	;# 
   367  009C                     	;# 
   368  009D                     	;# 
   369  009E                     	;# 
   370  009F                     	;# 
   371  0105                     	;# 
   372  0107                     	;# 
   373  0108                     	;# 
   374  0109                     	;# 
   375  010C                     	;# 
   376  010C                     	;# 
   377  010D                     	;# 
   378  010E                     	;# 
   379  010F                     	;# 
   380  0185                     	;# 
   381  0187                     	;# 
   382  0188                     	;# 
   383  0189                     	;# 
   384  018C                     	;# 
   385  018D                     	;# 
   386  0000                     	;# 
   387  0001                     	;# 
   388  0002                     	;# 
   389  0003                     	;# 
   390  0004                     	;# 
   391  0005                     	;# 
   392  0006                     	;# 
   393  0007                     	;# 
   394  0008                     	;# 
   395  0009                     	;# 
   396  000A                     	;# 
   397  000B                     	;# 
   398  000C                     	;# 
   399  000D                     	;# 
   400  000E                     	;# 
   401  000E                     	;# 
   402  000F                     	;# 
   403  0010                     	;# 
   404  0011                     	;# 
   405  0012                     	;# 
   406  0013                     	;# 
   407  0014                     	;# 
   408  0015                     	;# 
   409  0015                     	;# 
   410  0016                     	;# 
   411  0017                     	;# 
   412  0018                     	;# 
   413  0019                     	;# 
   414  001A                     	;# 
   415  001B                     	;# 
   416  001B                     	;# 
   417  001C                     	;# 
   418  001D                     	;# 
   419  001E                     	;# 
   420  001F                     	;# 
   421  0081                     	;# 
   422  0085                     	;# 
   423  0086                     	;# 
   424  0087                     	;# 
   425  0088                     	;# 
   426  0089                     	;# 
   427  008C                     	;# 
   428  008D                     	;# 
   429  008E                     	;# 
   430  008F                     	;# 
   431  0090                     	;# 
   432  0091                     	;# 
   433  0092                     	;# 
   434  0093                     	;# 
   435  0093                     	;# 
   436  0093                     	;# 
   437  0094                     	;# 
   438  0095                     	;# 
   439  0096                     	;# 
   440  0097                     	;# 
   441  0098                     	;# 
   442  0099                     	;# 
   443  009A                     	;# 
   444  009B                     	;# 
   445  009C                     	;# 
   446  009D                     	;# 
   447  009E                     	;# 
   448  009F                     	;# 
   449  0105                     	;# 
   450  0107                     	;# 
   451  0108                     	;# 
   452  0109                     	;# 
   453  010C                     	;# 
   454  010C                     	;# 
   455  010D                     	;# 
   456  010E                     	;# 
   457  010F                     	;# 
   458  0185                     	;# 
   459  0187                     	;# 
   460  0188                     	;# 
   461  0189                     	;# 
   462  018C                     	;# 
   463  018D                     	;# 
   464  001A                     _RCREG	set	26
   465  0019                     _TXREG	set	25
   466  0018                     _RCSTAbits	set	24
   467  001F                     _ADCON0bits	set	31
   468  0008                     _PORTDbits	set	8
   469  001E                     _ADRESH	set	30
   470  000C                     _PIR1bits	set	12
   471  0009                     _PORTE	set	9
   472  0008                     _PORTD	set	8
   473  0007                     _PORTC	set	7
   474  0006                     _PORTB	set	6
   475  0005                     _PORTA	set	5
   476  000B                     _INTCONbits	set	11
   477  0087                     _TRISCbits	set	135
   478  0098                     _TXSTAbits	set	152
   479  0099                     _SPBRG	set	153
   480  009F                     _ADCON1bits	set	159
   481  008C                     _PIE1bits	set	140
   482  0086                     _TRISB	set	134
   483  0089                     _TRISE	set	137
   484  0088                     _TRISD	set	136
   485  0087                     _TRISC	set	135
   486  0085                     _TRISA	set	133
   487  0189                     _ANSELHbits	set	393
   488  0188                     _ANSELbits	set	392
   489  0189                     _ANSELH	set	393
   490  0188                     _ANSEL	set	392
   491                           
   492                           	psect	strings
   493  1000                     __pstrings:
   494  1000                     stringtab:
   495  1000                     __stringtab:
   496                           
   497                           ;	String table - string pointers are 1 byte each
   498  1000  1BFF               	btfsc	btemp+1,7
   499  1001  280A               	ljmp	stringcode
   500  1002  1383               	bcf	3,7
   501  1003  187F               	btfsc	btemp+1,0
   502  1004  1783               	bsf	3,7
   503  1005  0800               	movf	0,w
   504  1006  0A84               	incf	4,f
   505  1007  1903               	skipnz
   506  1008  0AFF               	incf	btemp+1,f
   507  1009  0008               	return
   508  100A                     stringcode:
   509  100A                     stringdir:
   510  100A  3010               	movlw	high stringdir
   511  100B  008A               	movwf	10
   512  100C  0804               	movf	4,w
   513  100D  0A84               	incf	4,f
   514  100E  0782               	addwf	2,f
   515  100F                     __stringbase:
   516  100F  3400               	retlw	0
   517  1010                     __end_of__stringtab:
   518  1010                     STR_1:
   519  1010  3450               	retlw	80	;'P'
   520  1011  3431               	retlw	49	;'1'
   521  1012  3400               	retlw	0
   522  1013                     STR_2:
   523  1013  3450               	retlw	80	;'P'
   524  1014  3432               	retlw	50	;'2'
   525  1015  3400               	retlw	0
   526  1016                     STR_3:
   527  1016  3450               	retlw	80	;'P'
   528  1017  3443               	retlw	67	;'C'
   529  1018  3400               	retlw	0
   530                           
   531                           	psect	cinit
   532  000F                     start_initialization:	
   533                           ; #config settings
   534                           
   535  000F                     __initialization:
   536                           
   537                           ; Clear objects allocated to COMMON
   538  000F  01FA               	clrf	__pbssCOMMON& (0+127)
   539  0010  01FB               	clrf	(__pbssCOMMON+1)& (0+127)
   540                           
   541                           ; Clear objects allocated to BANK1
   542  0011  1383               	bcf	3,7	;select IRP bank0
   543  0012  30A0               	movlw	low __pbssBANK1
   544  0013  0084               	movwf	4
   545  0014  30BD               	movlw	low (__pbssBANK1+29)
   546  0015  160A  118A  2497  120A  118A  	fcall	clear_ram0
   547  001A                     end_of_initialization:	
   548                           ;End of C runtime variable initialization code
   549                           
   550  001A                     __end_of__initialization:
   551  001A  0183               	clrf	3
   552  001B  120A  158A  2B8A   	ljmp	_main	;jump to C main() function
   553                           
   554                           	psect	bssCOMMON
   555  007A                     __pbssCOMMON:
   556  007A                     _var_adc1:
   557  007A                     	ds	1
   558  007B                     _var_adc0:
   559  007B                     	ds	1
   560                           
   561                           	psect	bssBANK1
   562  00A0                     __pbssBANK1:
   563  00A0                     _conv1:
   564  00A0                     	ds	4
   565  00A4                     _conv0:
   566  00A4                     	ds	4
   567  00A8                     _canal_act:
   568  00A8                     	ds	1
   569  00A9                     _adc1:
   570  00A9                     	ds	10
   571  00B3                     _adc0:
   572  00B3                     	ds	10
   573                           
   574                           	psect	clrtext
   575  1497                     clear_ram0:	
   576                           ;	Called with FSR containing the base address, and
   577                           ;	W with the last address+1
   578                           
   579  1497  0064               	clrwdt	;clear the watchdog before getting into this loop
   580  1498                     clrloop0:
   581  1498  0180               	clrf	0	;clear RAM location pointed to by FSR
   582  1499  0A84               	incf	4,f	;increment pointer
   583  149A  0604               	xorwf	4,w	;XOR with final address
   584  149B  1903               	btfsc	3,2	;have we reached the end yet?
   585  149C  3400               	retlw	0	;all done for this memory range, return
   586  149D  0604               	xorwf	4,w	;XOR again to restore value
   587  149E  2C98               	goto	clrloop0	;do the next byte
   588                           
   589                           	psect	cstackBANK1
   590  00BD                     __pcstackBANK1:
   591  00BD                     ?_convert:
   592  00BD                     convert@a:	
   593                           ; 1 bytes @ 0x0
   594                           
   595                           
   596                           ; 4 bytes @ 0x0
   597  00BD                     	ds	4
   598  00C1                     convert@place:
   599                           
   600                           ; 2 bytes @ 0x4
   601  00C1                     	ds	2
   602  00C3                     convert@temp:
   603                           
   604                           ; 2 bytes @ 0x6
   605  00C3                     	ds	2
   606  00C5                     convert@j:
   607                           
   608                           ; 2 bytes @ 0x8
   609  00C5                     	ds	2
   610  00C7                     convert@data:
   611                           
   612                           ; 1 bytes @ 0xA
   613  00C7                     	ds	1
   614  00C8                     convert@x:
   615                           
   616                           ; 4 bytes @ 0xB
   617  00C8                     	ds	4
   618  00CC                     convert@i:
   619                           
   620                           ; 2 bytes @ 0xF
   621  00CC                     	ds	2
   622  00CE                     convert@digits:
   623                           
   624                           ; 2 bytes @ 0x11
   625  00CE                     	ds	2
   626  00D0                     convert@mu:
   627                           
   628                           ; 2 bytes @ 0x13
   629  00D0                     	ds	2
   630  00D2                     ??_main:
   631                           
   632                           ; 1 bytes @ 0x15
   633  00D2                     	ds	4
   634                           
   635                           	psect	cstackCOMMON
   636  0070                     __pcstackCOMMON:
   637  0070                     ?_start_ch:
   638  0070                     ?_Select_ch:	
   639                           ; 1 bytes @ 0x0
   640                           
   641  0070                     ?_Lcd_Init:	
   642                           ; 1 bytes @ 0x0
   643                           
   644  0070                     ?_Lcd_Clear:	
   645                           ; 1 bytes @ 0x0
   646                           
   647  0070                     ?_ISR:	
   648                           ; 1 bytes @ 0x0
   649                           
   650  0070                     ??_ISR:	
   651                           ; 1 bytes @ 0x0
   652                           
   653  0070                     ?_main:	
   654                           ; 1 bytes @ 0x0
   655                           
   656  0070                     ?_Lcd_Port:	
   657                           ; 1 bytes @ 0x0
   658                           
   659  0070                     ?_Lcd_Cmd:	
   660                           ; 1 bytes @ 0x0
   661                           
   662  0070                     ?_Lcd_Write_Char:	
   663                           ; 1 bytes @ 0x0
   664                           
   665                           
   666                           ; 1 bytes @ 0x0
   667  0070                     	ds	2
   668  0072                     ?___flge:
   669  0072                     ?_start_adc:	
   670                           ; 1 bit 
   671                           
   672  0072                     ??_start_ch:	
   673                           ; 1 bytes @ 0x2
   674                           
   675  0072                     ??_Select_ch:	
   676                           ; 1 bytes @ 0x2
   677                           
   678  0072                     ??_Lcd_Port:	
   679                           ; 1 bytes @ 0x2
   680                           
   681  0072                     ?__Umul8_16:	
   682                           ; 1 bytes @ 0x2
   683                           
   684  0072                     ?___awdiv:	
   685                           ; 2 bytes @ 0x2
   686                           
   687  0072                     ?___fltol:	
   688                           ; 2 bytes @ 0x2
   689                           
   690  0072                     ?___fladd:	
   691                           ; 4 bytes @ 0x2
   692                           
   693  0072                     Lcd_Port@a:	
   694                           ; 4 bytes @ 0x2
   695                           
   696  0072                     start_adc@isr:	
   697                           ; 1 bytes @ 0x2
   698                           
   699  0072                     __Umul8_16@multiplicand:	
   700                           ; 1 bytes @ 0x2
   701                           
   702  0072                     ___awdiv@divisor:	
   703                           ; 1 bytes @ 0x2
   704                           
   705  0072                     ___flge@ff1:	
   706                           ; 2 bytes @ 0x2
   707                           
   708  0072                     ___fltol@f1:	
   709                           ; 4 bytes @ 0x2
   710                           
   711  0072                     ___fladd@b:	
   712                           ; 4 bytes @ 0x2
   713                           
   714                           
   715                           ; 4 bytes @ 0x2
   716  0072                     	ds	1
   717  0073                     ??_Lcd_Cmd:
   718  0073                     ??_Lcd_Write_Char:	
   719                           ; 1 bytes @ 0x3
   720                           
   721  0073                     start_adc@Vref:	
   722                           ; 1 bytes @ 0x3
   723                           
   724                           
   725                           ; 1 bytes @ 0x3
   726  0073                     	ds	1
   727  0074                     ??__Umul8_16:
   728  0074                     Lcd_Write_Char@a:	
   729                           ; 1 bytes @ 0x4
   730                           
   731  0074                     start_adc@justRL:	
   732                           ; 1 bytes @ 0x4
   733                           
   734  0074                     start_ch@channel:	
   735                           ; 1 bytes @ 0x4
   736                           
   737  0074                     Select_ch@channel:	
   738                           ; 1 bytes @ 0x4
   739                           
   740  0074                     ___awdiv@dividend:	
   741                           ; 1 bytes @ 0x4
   742                           
   743                           
   744                           ; 2 bytes @ 0x4
   745  0074                     	ds	1
   746  0075                     ??_start_adc:
   747  0075                     ?_Lcd_Write_String:	
   748                           ; 1 bytes @ 0x5
   749                           
   750  0075                     Lcd_Cmd@a:	
   751                           ; 1 bytes @ 0x5
   752                           
   753  0075                     Lcd_Write_String@a:	
   754                           ; 1 bytes @ 0x5
   755                           
   756                           
   757                           ; 2 bytes @ 0x5
   758  0075                     	ds	1
   759  0076                     ??_Lcd_Init:
   760  0076                     ??_Lcd_Clear:	
   761                           ; 1 bytes @ 0x6
   762                           
   763  0076                     ?_Lcd_Set_Cursor:	
   764                           ; 1 bytes @ 0x6
   765                           
   766  0076                     ??___awdiv:	
   767                           ; 1 bytes @ 0x6
   768                           
   769  0076                     Lcd_Set_Cursor@b:	
   770                           ; 1 bytes @ 0x6
   771                           
   772  0076                     ___fltol@sign1:	
   773                           ; 1 bytes @ 0x6
   774                           
   775  0076                     ___flge@ff2:	
   776                           ; 1 bytes @ 0x6
   777                           
   778  0076                     ___fladd@a:	
   779                           ; 4 bytes @ 0x6
   780                           
   781                           
   782                           ; 4 bytes @ 0x6
   783  0076                     	ds	1
   784  0077                     ??_Lcd_Set_Cursor:
   785  0077                     ??_Lcd_Write_String:	
   786                           ; 1 bytes @ 0x7
   787                           
   788  0077                     start_adc@frec:	
   789                           ; 1 bytes @ 0x7
   790                           
   791  0077                     ___fltol@exp1:	
   792                           ; 1 bytes @ 0x7
   793                           
   794                           
   795                           ; 1 bytes @ 0x7
   796  0077                     	ds	1
   797  0078                     ??___wmul:
   798  0078                     Lcd_Set_Cursor@a:	
   799                           ; 1 bytes @ 0x8
   800                           
   801  0078                     ___wmul@product:	
   802                           ; 1 bytes @ 0x8
   803                           
   804                           
   805                           ; 2 bytes @ 0x8
   806  0078                     	ds	1
   807  0079                     Lcd_Set_Cursor@temp:
   808                           
   809                           ; 1 bytes @ 0x9
   810  0079                     	ds	1
   811  007A                     ??___flsub:
   812                           
   813                           	psect	cstackBANK0
   814  0020                     __pcstackBANK0:	
   815                           ; 1 bytes @ 0xA
   816                           
   817  0020                     ??___flge:
   818  0020                     ??___fltol:	
   819                           ; 1 bytes @ 0x0
   820                           
   821  0020                     ??___fladd:	
   822                           ; 1 bytes @ 0x0
   823                           
   824  0020                     ___awdiv@counter:	
   825                           ; 1 bytes @ 0x0
   826                           
   827  0020                     Lcd_Write_String@i:	
   828                           ; 1 bytes @ 0x0
   829                           
   830  0020                     __Umul8_16@product:	
   831                           ; 2 bytes @ 0x0
   832                           
   833                           
   834                           ; 2 bytes @ 0x0
   835  0020                     	ds	1
   836  0021                     ___awdiv@sign:
   837                           
   838                           ; 1 bytes @ 0x1
   839  0021                     	ds	1
   840  0022                     ___awdiv@quotient:
   841  0022                     __Umul8_16@word_mpld:	
   842                           ; 2 bytes @ 0x2
   843                           
   844                           
   845                           ; 2 bytes @ 0x2
   846  0022                     	ds	2
   847  0024                     __Umul8_16@multiplier:
   848                           
   849                           ; 1 bytes @ 0x4
   850  0024                     	ds	1
   851  0025                     ?___wmul:
   852  0025                     ___wmul@multiplier:	
   853                           ; 2 bytes @ 0x5
   854                           
   855                           
   856                           ; 2 bytes @ 0x5
   857  0025                     	ds	2
   858  0027                     ___wmul@multiplicand:
   859                           
   860                           ; 2 bytes @ 0x7
   861  0027                     	ds	1
   862  0028                     ___fladd@signs:
   863                           
   864                           ; 1 bytes @ 0x8
   865  0028                     	ds	1
   866  0029                     ?___xxtofl:
   867  0029                     ___fladd@aexp:	
   868                           ; 4 bytes @ 0x9
   869                           
   870  0029                     ___xxtofl@val:	
   871                           ; 1 bytes @ 0x9
   872                           
   873                           
   874                           ; 4 bytes @ 0x9
   875  0029                     	ds	1
   876  002A                     ___fladd@bexp:
   877                           
   878                           ; 1 bytes @ 0xA
   879  002A                     	ds	1
   880  002B                     ___fladd@grs:
   881                           
   882                           ; 1 bytes @ 0xB
   883  002B                     	ds	2
   884  002D                     ??___xxtofl:
   885                           
   886                           ; 1 bytes @ 0xD
   887  002D                     	ds	4
   888  0031                     ___xxtofl@sign:
   889                           
   890                           ; 1 bytes @ 0x11
   891  0031                     	ds	1
   892  0032                     ___xxtofl@exp:
   893                           
   894                           ; 1 bytes @ 0x12
   895  0032                     	ds	1
   896  0033                     ___xxtofl@arg:
   897                           
   898                           ; 4 bytes @ 0x13
   899  0033                     	ds	4
   900  0037                     ?___flsub:
   901  0037                     ?___fldiv:	
   902                           ; 4 bytes @ 0x17
   903                           
   904  0037                     ___flsub@a:	
   905                           ; 4 bytes @ 0x17
   906                           
   907  0037                     ___fldiv@a:	
   908                           ; 4 bytes @ 0x17
   909                           
   910                           
   911                           ; 4 bytes @ 0x17
   912  0037                     	ds	4
   913  003B                     ___flsub@b:
   914  003B                     ___fldiv@b:	
   915                           ; 4 bytes @ 0x1B
   916                           
   917                           
   918                           ; 4 bytes @ 0x1B
   919  003B                     	ds	4
   920  003F                     ??___fldiv:
   921                           
   922                           ; 1 bytes @ 0x1F
   923  003F                     	ds	5
   924  0044                     ___fldiv@rem:
   925                           
   926                           ; 4 bytes @ 0x24
   927  0044                     	ds	4
   928  0048                     ___fldiv@sign:
   929                           
   930                           ; 1 bytes @ 0x28
   931  0048                     	ds	1
   932  0049                     ___fldiv@new_exp:
   933                           
   934                           ; 2 bytes @ 0x29
   935  0049                     	ds	2
   936  004B                     ___fldiv@grs:
   937                           
   938                           ; 4 bytes @ 0x2B
   939  004B                     	ds	4
   940  004F                     ___fldiv@bexp:
   941                           
   942                           ; 1 bytes @ 0x2F
   943  004F                     	ds	1
   944  0050                     ___fldiv@aexp:
   945                           
   946                           ; 1 bytes @ 0x30
   947  0050                     	ds	1
   948  0051                     ?___flmul:
   949  0051                     ___flmul@b:	
   950                           ; 4 bytes @ 0x31
   951                           
   952                           
   953                           ; 4 bytes @ 0x31
   954  0051                     	ds	4
   955  0055                     ___flmul@a:
   956                           
   957                           ; 4 bytes @ 0x35
   958  0055                     	ds	4
   959  0059                     ??___flmul:
   960                           
   961                           ; 1 bytes @ 0x39
   962  0059                     	ds	5
   963  005E                     ___flmul@sign:
   964                           
   965                           ; 1 bytes @ 0x3E
   966  005E                     	ds	1
   967  005F                     ___flmul@aexp:
   968                           
   969                           ; 1 bytes @ 0x3F
   970  005F                     	ds	1
   971  0060                     ___flmul@grs:
   972                           
   973                           ; 4 bytes @ 0x40
   974  0060                     	ds	4
   975  0064                     ___flmul@bexp:
   976                           
   977                           ; 1 bytes @ 0x44
   978  0064                     	ds	1
   979  0065                     ___flmul@prod:
   980                           
   981                           ; 4 bytes @ 0x45
   982  0065                     	ds	4
   983  0069                     ___flmul@temp:
   984                           
   985                           ; 2 bytes @ 0x49
   986  0069                     	ds	2
   987  006B                     ??_convert:
   988                           
   989                           ; 1 bytes @ 0x4B
   990  006B                     	ds	2
   991                           
   992                           	psect	maintext
   993  0B8A                     __pmaintext:	
   994 ;;
   995 ;;Main: autosize = 0, tempsize = 4, incstack = 0, save=0
   996 ;;
   997 ;; *************** function _main *****************
   998 ;; Defined at:
   999 ;;		line 47 in file "lab_3.c"
  1000 ;; Parameters:    Size  Location     Type
  1001 ;;		None
  1002 ;; Auto vars:     Size  Location     Type
  1003 ;;		None
  1004 ;; Return value:  Size  Location     Type
  1005 ;;                  1    wreg      void 
  1006 ;; Registers used:
  1007 ;;		wreg, fsr0l, fsr0h, status,2, status,0, btemp+1, pclath, cstack
  1008 ;; Tracked objects:
  1009 ;;		On entry : B00/0
  1010 ;;		On exit  : 0/0
  1011 ;;		Unchanged: 0/0
  1012 ;; Data sizes:     COMMON   BANK0   BANK1   BANK3   BANK2
  1013 ;;      Params:         0       0       0       0       0
  1014 ;;      Locals:         0       0       0       0       0
  1015 ;;      Temps:          0       0       4       0       0
  1016 ;;      Totals:         0       0       4       0       0
  1017 ;;Total ram usage:        4 bytes
  1018 ;; Hardware stack levels required when called:    4
  1019 ;; This function calls:
  1020 ;;		_Lcd_Clear
  1021 ;;		_Lcd_Init
  1022 ;;		_Lcd_Set_Cursor
  1023 ;;		_Lcd_Write_String
  1024 ;;		_Select_ch
  1025 ;;		___fldiv
  1026 ;;		___flmul
  1027 ;;		___xxtofl
  1028 ;;		_convert
  1029 ;;		_start_adc
  1030 ;;		_start_ch
  1031 ;; This function is called by:
  1032 ;;		Startup code after reset
  1033 ;; This function uses a non-reentrant model
  1034 ;;
  1035                           
  1036                           
  1037                           ;psect for function _main
  1038  0B8A                     _main:
  1039  0B8A                     l3390:	
  1040                           ;incstack = 0
  1041                           ; Regs used in _main: [wreg-fsr0h+status,2+status,0+btemp+1+pclath+cstack]
  1042                           
  1043                           
  1044                           ;lab_3.c: 49:         Lcd_Set_Cursor(1, 8);
  1045  0B8A  178B               	bsf	11,7	;volatile
  1046                           
  1047                           ;lab_3.c: 50:         Lcd_Write_String("P2");
  1048  0B8B  170B               	bsf	11,6	;volatile
  1049                           
  1050                           ;lab_3.c: 51:         Lcd_Set_Cursor(1, 15);
  1051  0B8C  100B               	bcf	11,0	;volatile
  1052  0B8D                     l3392:
  1053                           
  1054                           ;lab_3.c: 53:         if (PIR1bits.ADIF == 1) {
  1055  0B8D  1683               	bsf	3,5	;RP0=1, select bank3
  1056  0B8E  1703               	bsf	3,6	;RP1=1, select bank3
  1057  0B8F  0188               	clrf	8	;volatile
  1058                           
  1059                           ;lab_3.c: 54:             if (canal_act == 0) {
  1060  0B90  0189               	clrf	9	;volatile
  1061  0B91                     l3394:
  1062                           
  1063                           ;lab_3.c: 55:                 var_adc0 = ADRESH;
  1064  0B91  01F2               	clrf	start_adc@isr
  1065  0B92  01F3               	clrf	start_adc@Vref
  1066  0B93  01F4               	clrf	start_adc@justRL
  1067  0B94  3002               	movlw	2
  1068  0B95  160A  118A  25A6  120A  158A  	fcall	_start_adc
  1069  0B9A                     l3396:
  1070                           
  1071                           ;lab_3.c: 56:                 Select_ch(10);
  1072  0B9A  300C               	movlw	12
  1073  0B9B  160A  118A  2671  120A  158A  	fcall	_start_ch
  1074  0BA0                     l3398:
  1075                           
  1076                           ;lab_3.c: 57:                 canal_act++;
  1077  0BA0  300A               	movlw	10
  1078  0BA1  160A  118A  2671  120A  158A  	fcall	_start_ch
  1079  0BA6                     l3400:
  1080                           
  1081                           ;lab_3.c: 58:             } else {
  1082  0BA6  300C               	movlw	12
  1083  0BA7  120A  158A  203E  120A  158A  	fcall	_Select_ch
  1084                           
  1085                           ;lab_3.c: 60:                 Select_ch(12);
  1086  0BAC  1683               	bsf	3,5	;RP0=1, select bank1
  1087  0BAD  1303               	bcf	3,6	;RP1=0, select bank1
  1088  0BAE  0185               	clrf	5	;volatile
  1089                           
  1090                           ;lab_3.c: 61:                 canal_act--;
  1091  0BAF  0187               	clrf	7	;volatile
  1092                           
  1093                           ;lab_3.c: 62:             }
  1094  0BB0  0188               	clrf	8	;volatile
  1095                           
  1096                           ;lab_3.c: 63:             PIR1bits.ADIF = 0;
  1097  0BB1  0189               	clrf	9	;volatile
  1098  0BB2                     l3402:
  1099                           
  1100                           ;lab_3.c: 64:         }
  1101  0BB2  30FF               	movlw	255
  1102  0BB3  0086               	movwf	6	;volatile
  1103  0BB4                     l3404:
  1104                           
  1105                           ;lab_3.c: 66:         conv1 = 0;
  1106  0BB4  1283               	bcf	3,5	;RP0=0, select bank0
  1107  0BB5  1303               	bcf	3,6	;RP1=0, select bank0
  1108  0BB6  0185               	clrf	5	;volatile
  1109  0BB7                     l3406:
  1110                           
  1111                           ;lab_3.c: 67: 
  1112  0BB7  0186               	clrf	6	;volatile
  1113  0BB8                     l3408:
  1114                           
  1115                           ;lab_3.c: 68:         conv0 = (var_adc0 / (float) 255)*5;
  1116  0BB8  0187               	clrf	7	;volatile
  1117  0BB9                     l3410:
  1118                           
  1119                           ;lab_3.c: 69:         convert(adc0, conv0, 2);
  1120  0BB9  0188               	clrf	8	;volatile
  1121  0BBA                     l3412:
  1122                           
  1123                           ;lab_3.c: 70: 
  1124  0BBA  0189               	clrf	9	;volatile
  1125  0BBB                     l3414:
  1126                           
  1127                           ;lab_3.c: 72:         convert(adc1, conv1, 2);
  1128  0BBB  160A  118A  251B  120A  158A  	fcall	_Lcd_Init
  1129  0BC0                     l3416:
  1130                           
  1131                           ;lab_3.c: 73: 
  1132  0BC0  160A  118A  249F  120A  158A  	fcall	_Lcd_Clear
  1133  0BC5                     l3418:
  1134                           
  1135                           ;lab_3.c: 77:         Lcd_Set_Cursor(2, 8);
  1136  0BC5  01F6               	clrf	Lcd_Set_Cursor@b
  1137  0BC6  0AF6               	incf	Lcd_Set_Cursor@b,f
  1138  0BC7  3001               	movlw	1
  1139  0BC8  160A  118A  24AC  120A  158A  	fcall	_Lcd_Set_Cursor
  1140  0BCD                     l3420:
  1141                           
  1142                           ;lab_3.c: 78:         Lcd_Write_String(adc1);
  1143  0BCD  3001               	movlw	(low ((STR_1-__stringbase)| (0+32768)))& (0+255)
  1144  0BCE  00F5               	movwf	Lcd_Write_String@a
  1145  0BCF  3080               	movlw	128
  1146  0BD0  00F6               	movwf	Lcd_Write_String@a+1
  1147  0BD1  160A  118A  2560  120A  158A  	fcall	_Lcd_Write_String
  1148  0BD6                     l3422:
  1149                           
  1150                           ;lab_3.c: 79:         _delay((unsigned long)((20)*(4000000/4000.0)));
  1151  0BD6  3008               	movlw	8
  1152  0BD7  1683               	bsf	3,5	;RP0=1, select bank1
  1153  0BD8  1303               	bcf	3,6	;RP1=0, select bank1
  1154  0BD9  00D2               	movwf	??_main^(0+128)
  1155  0BDA  0852               	movf	??_main^(0+128),w
  1156  0BDB  00F6               	movwf	Lcd_Set_Cursor@b
  1157  0BDC  3001               	movlw	1
  1158  0BDD  160A  118A  24AC  120A  158A  	fcall	_Lcd_Set_Cursor
  1159  0BE2                     l3424:
  1160                           
  1161                           ;lab_3.c: 80: 
  1162  0BE2  3004               	movlw	(low ((STR_2-__stringbase)| (0+32768)))& (0+255)
  1163  0BE3  00F5               	movwf	Lcd_Write_String@a
  1164  0BE4  3080               	movlw	128
  1165  0BE5  00F6               	movwf	Lcd_Write_String@a+1
  1166  0BE6  160A  118A  2560  120A  158A  	fcall	_Lcd_Write_String
  1167  0BEB                     l3426:
  1168                           
  1169                           ;lab_3.c: 81:     }
  1170  0BEB  300F               	movlw	15
  1171  0BEC  1683               	bsf	3,5	;RP0=1, select bank1
  1172  0BED  1303               	bcf	3,6	;RP1=0, select bank1
  1173  0BEE  00D2               	movwf	??_main^(0+128)
  1174  0BEF  0852               	movf	??_main^(0+128),w
  1175  0BF0  00F6               	movwf	Lcd_Set_Cursor@b
  1176  0BF1  3001               	movlw	1
  1177  0BF2  160A  118A  24AC  120A  158A  	fcall	_Lcd_Set_Cursor
  1178  0BF7                     l3428:
  1179                           
  1180                           ;lab_3.c: 82: }
  1181  0BF7  3007               	movlw	(low ((STR_3-__stringbase)| (0+32768)))& (0+255)
  1182  0BF8  00F5               	movwf	Lcd_Write_String@a
  1183  0BF9  3080               	movlw	128
  1184  0BFA  00F6               	movwf	Lcd_Write_String@a+1
  1185  0BFB  160A  118A  2560  120A  158A  	fcall	_Lcd_Write_String
  1186  0C00                     l3430:
  1187  0C00  1283               	bcf	3,5	;RP0=0, select bank0
  1188  0C01  1303               	bcf	3,6	;RP1=0, select bank0
  1189  0C02  1F0C               	btfss	12,6	;volatile
  1190  0C03  2C05               	goto	u4461
  1191  0C04  2C06               	goto	u4460
  1192  0C05                     u4461:
  1193  0C05  2C37               	goto	l3448
  1194  0C06                     u4460:
  1195  0C06                     l3432:
  1196  0C06  1683               	bsf	3,5	;RP0=1, select bank1
  1197  0C07  1303               	bcf	3,6	;RP1=0, select bank1
  1198  0C08  0828               	movf	_canal_act^(0+128),w
  1199  0C09  1D03               	btfss	3,2
  1200  0C0A  2C0C               	goto	u4471
  1201  0C0B  2C0D               	goto	u4470
  1202  0C0C                     u4471:
  1203  0C0C  2C22               	goto	l3440
  1204  0C0D                     u4470:
  1205  0C0D                     l3434:
  1206  0C0D  1283               	bcf	3,5	;RP0=0, select bank0
  1207  0C0E  1303               	bcf	3,6	;RP1=0, select bank0
  1208  0C0F  081E               	movf	30,w	;volatile
  1209  0C10  1683               	bsf	3,5	;RP0=1, select bank1
  1210  0C11  1303               	bcf	3,6	;RP1=0, select bank1
  1211  0C12  00D2               	movwf	??_main^(0+128)
  1212  0C13  0852               	movf	??_main^(0+128),w
  1213  0C14  00FB               	movwf	_var_adc0	;volatile
  1214  0C15                     l3436:
  1215  0C15  300A               	movlw	10
  1216  0C16  120A  158A  203E  120A  158A  	fcall	_Select_ch
  1217  0C1B                     l3438:
  1218  0C1B  3001               	movlw	1
  1219  0C1C  1683               	bsf	3,5	;RP0=1, select bank1
  1220  0C1D  1303               	bcf	3,6	;RP1=0, select bank1
  1221  0C1E  00D2               	movwf	??_main^(0+128)
  1222  0C1F  0852               	movf	??_main^(0+128),w
  1223  0C20  07A8               	addwf	_canal_act^(0+128),f
  1224  0C21  2C34               	goto	l3446
  1225  0C22                     l3440:
  1226  0C22  1283               	bcf	3,5	;RP0=0, select bank0
  1227  0C23  1303               	bcf	3,6	;RP1=0, select bank0
  1228  0C24  081E               	movf	30,w	;volatile
  1229  0C25  1683               	bsf	3,5	;RP0=1, select bank1
  1230  0C26  1303               	bcf	3,6	;RP1=0, select bank1
  1231  0C27  00D2               	movwf	??_main^(0+128)
  1232  0C28  0852               	movf	??_main^(0+128),w
  1233  0C29  00FA               	movwf	_var_adc1	;volatile
  1234  0C2A                     l3442:
  1235  0C2A  300C               	movlw	12
  1236  0C2B  120A  158A  203E  120A  158A  	fcall	_Select_ch
  1237  0C30                     l3444:
  1238  0C30  3001               	movlw	1
  1239  0C31  1683               	bsf	3,5	;RP0=1, select bank1
  1240  0C32  1303               	bcf	3,6	;RP1=0, select bank1
  1241  0C33  02A8               	subwf	_canal_act^(0+128),f
  1242  0C34                     l3446:
  1243  0C34  1283               	bcf	3,5	;RP0=0, select bank0
  1244  0C35  1303               	bcf	3,6	;RP1=0, select bank0
  1245  0C36  130C               	bcf	12,6	;volatile
  1246  0C37                     l3448:
  1247  0C37  3000               	movlw	0
  1248  0C38  1683               	bsf	3,5	;RP0=1, select bank1
  1249  0C39  1303               	bcf	3,6	;RP1=0, select bank1
  1250  0C3A  00A7               	movwf	(_conv0+3)^(0+128)
  1251  0C3B  3000               	movlw	0
  1252  0C3C  00A6               	movwf	(_conv0+2)^(0+128)
  1253  0C3D  3000               	movlw	0
  1254  0C3E  00A5               	movwf	(_conv0+1)^(0+128)
  1255  0C3F  3000               	movlw	0
  1256  0C40  00A4               	movwf	_conv0^(0+128)
  1257  0C41                     l3450:
  1258  0C41  3000               	movlw	0
  1259  0C42  00A3               	movwf	(_conv1+3)^(0+128)
  1260  0C43  3000               	movlw	0
  1261  0C44  00A2               	movwf	(_conv1+2)^(0+128)
  1262  0C45  3000               	movlw	0
  1263  0C46  00A1               	movwf	(_conv1+1)^(0+128)
  1264  0C47  3000               	movlw	0
  1265  0C48  00A0               	movwf	_conv1^(0+128)
  1266  0C49                     l3452:
  1267  0C49  3040               	movlw	64
  1268  0C4A  1283               	bcf	3,5	;RP0=0, select bank0
  1269  0C4B  1303               	bcf	3,6	;RP1=0, select bank0
  1270  0C4C  00D4               	movwf	___flmul@b+3
  1271  0C4D  30A0               	movlw	160
  1272  0C4E  00D3               	movwf	___flmul@b+2
  1273  0C4F  3000               	movlw	0
  1274  0C50  00D2               	movwf	___flmul@b+1
  1275  0C51  3000               	movlw	0
  1276  0C52  00D1               	movwf	___flmul@b
  1277  0C53  3043               	movlw	67
  1278  0C54  00BA               	movwf	___fldiv@a+3
  1279  0C55  307F               	movlw	127
  1280  0C56  00B9               	movwf	___fldiv@a+2
  1281  0C57  3000               	movlw	0
  1282  0C58  00B8               	movwf	___fldiv@a+1
  1283  0C59  3000               	movlw	0
  1284  0C5A  00B7               	movwf	___fldiv@a
  1285  0C5B  087B               	movf	_var_adc0,w	;volatile
  1286  0C5C  1683               	bsf	3,5	;RP0=1, select bank1
  1287  0C5D  1303               	bcf	3,6	;RP1=0, select bank1
  1288  0C5E  00D2               	movwf	??_main^(0+128)
  1289  0C5F  01D3               	clrf	(??_main^(0+128)+1)
  1290  0C60  01D4               	clrf	(??_main^(0+128)+2)
  1291  0C61  01D5               	clrf	(??_main^(0+128)+3)
  1292  0C62  0855               	movf	(??_main+3)^(0+128),w
  1293  0C63  1283               	bcf	3,5	;RP0=0, select bank0
  1294  0C64  1303               	bcf	3,6	;RP1=0, select bank0
  1295  0C65  00AC               	movwf	___xxtofl@val+3
  1296  0C66  1683               	bsf	3,5	;RP0=1, select bank1
  1297  0C67  1303               	bcf	3,6	;RP1=0, select bank1
  1298  0C68  0854               	movf	(??_main+2)^(0+128),w
  1299  0C69  1283               	bcf	3,5	;RP0=0, select bank0
  1300  0C6A  1303               	bcf	3,6	;RP1=0, select bank0
  1301  0C6B  00AB               	movwf	___xxtofl@val+2
  1302  0C6C  1683               	bsf	3,5	;RP0=1, select bank1
  1303  0C6D  1303               	bcf	3,6	;RP1=0, select bank1
  1304  0C6E  0853               	movf	(??_main+1)^(0+128),w
  1305  0C6F  1283               	bcf	3,5	;RP0=0, select bank0
  1306  0C70  1303               	bcf	3,6	;RP1=0, select bank0
  1307  0C71  00AA               	movwf	___xxtofl@val+1
  1308  0C72  1683               	bsf	3,5	;RP0=1, select bank1
  1309  0C73  1303               	bcf	3,6	;RP1=0, select bank1
  1310  0C74  0852               	movf	??_main^(0+128),w
  1311  0C75  1283               	bcf	3,5	;RP0=0, select bank0
  1312  0C76  1303               	bcf	3,6	;RP1=0, select bank0
  1313  0C77  00A9               	movwf	___xxtofl@val
  1314  0C78  3001               	movlw	1
  1315  0C79  120A  158A  20F1  120A  158A  	fcall	___xxtofl
  1316  0C7E  1283               	bcf	3,5	;RP0=0, select bank0
  1317  0C7F  1303               	bcf	3,6	;RP1=0, select bank0
  1318  0C80  082C               	movf	?___xxtofl+3,w
  1319  0C81  00BE               	movwf	___fldiv@b+3
  1320  0C82  082B               	movf	?___xxtofl+2,w
  1321  0C83  00BD               	movwf	___fldiv@b+2
  1322  0C84  082A               	movf	?___xxtofl+1,w
  1323  0C85  00BC               	movwf	___fldiv@b+1
  1324  0C86  0829               	movf	?___xxtofl,w
  1325  0C87  00BB               	movwf	___fldiv@b
  1326  0C88  120A  158A  21AD  120A  158A  	fcall	___fldiv
  1327  0C8D  1283               	bcf	3,5	;RP0=0, select bank0
  1328  0C8E  1303               	bcf	3,6	;RP1=0, select bank0
  1329  0C8F  083A               	movf	?___fldiv+3,w
  1330  0C90  00D8               	movwf	___flmul@a+3
  1331  0C91  0839               	movf	?___fldiv+2,w
  1332  0C92  00D7               	movwf	___flmul@a+2
  1333  0C93  0838               	movf	?___fldiv+1,w
  1334  0C94  00D6               	movwf	___flmul@a+1
  1335  0C95  0837               	movf	?___fldiv,w
  1336  0C96  00D5               	movwf	___flmul@a
  1337  0C97  120A  118A  2480  120A  158A  	fcall	___flmul
  1338  0C9C  1283               	bcf	3,5	;RP0=0, select bank0
  1339  0C9D  1303               	bcf	3,6	;RP1=0, select bank0
  1340  0C9E  0854               	movf	?___flmul+3,w
  1341  0C9F  1683               	bsf	3,5	;RP0=1, select bank1
  1342  0CA0  1303               	bcf	3,6	;RP1=0, select bank1
  1343  0CA1  00A7               	movwf	(_conv0+3)^(0+128)
  1344  0CA2  1283               	bcf	3,5	;RP0=0, select bank0
  1345  0CA3  1303               	bcf	3,6	;RP1=0, select bank0
  1346  0CA4  0853               	movf	?___flmul+2,w
  1347  0CA5  1683               	bsf	3,5	;RP0=1, select bank1
  1348  0CA6  1303               	bcf	3,6	;RP1=0, select bank1
  1349  0CA7  00A6               	movwf	(_conv0+2)^(0+128)
  1350  0CA8  1283               	bcf	3,5	;RP0=0, select bank0
  1351  0CA9  1303               	bcf	3,6	;RP1=0, select bank0
  1352  0CAA  0852               	movf	?___flmul+1,w
  1353  0CAB  1683               	bsf	3,5	;RP0=1, select bank1
  1354  0CAC  1303               	bcf	3,6	;RP1=0, select bank1
  1355  0CAD  00A5               	movwf	(_conv0+1)^(0+128)
  1356  0CAE  1283               	bcf	3,5	;RP0=0, select bank0
  1357  0CAF  1303               	bcf	3,6	;RP1=0, select bank0
  1358  0CB0  0851               	movf	?___flmul,w
  1359  0CB1  1683               	bsf	3,5	;RP0=1, select bank1
  1360  0CB2  1303               	bcf	3,6	;RP1=0, select bank1
  1361  0CB3  00A4               	movwf	_conv0^(0+128)
  1362  0CB4                     l3454:
  1363  0CB4  0827               	movf	(_conv0+3)^(0+128),w
  1364  0CB5  00C0               	movwf	(convert@a+3)^(0+128)
  1365  0CB6  0826               	movf	(_conv0+2)^(0+128),w
  1366  0CB7  00BF               	movwf	(convert@a+2)^(0+128)
  1367  0CB8  0825               	movf	(_conv0+1)^(0+128),w
  1368  0CB9  00BE               	movwf	(convert@a+1)^(0+128)
  1369  0CBA  0824               	movf	_conv0^(0+128),w
  1370  0CBB  00BD               	movwf	convert@a^(0+128)
  1371  0CBC  3002               	movlw	2
  1372  0CBD  00C1               	movwf	convert@place^(0+128)
  1373  0CBE  3000               	movlw	0
  1374  0CBF  00C2               	movwf	(convert@place^(0+128)+1)
  1375  0CC0  30B3               	movlw	(low (_adc0| 0))& (0+255)
  1376  0CC1  120A  118A  201E  120A  158A  	fcall	_convert
  1377  0CC6                     l3456:
  1378  0CC6  3040               	movlw	64
  1379  0CC7  1283               	bcf	3,5	;RP0=0, select bank0
  1380  0CC8  1303               	bcf	3,6	;RP1=0, select bank0
  1381  0CC9  00D4               	movwf	___flmul@b+3
  1382  0CCA  30A0               	movlw	160
  1383  0CCB  00D3               	movwf	___flmul@b+2
  1384  0CCC  3000               	movlw	0
  1385  0CCD  00D2               	movwf	___flmul@b+1
  1386  0CCE  3000               	movlw	0
  1387  0CCF  00D1               	movwf	___flmul@b
  1388  0CD0  3043               	movlw	67
  1389  0CD1  00BA               	movwf	___fldiv@a+3
  1390  0CD2  307F               	movlw	127
  1391  0CD3  00B9               	movwf	___fldiv@a+2
  1392  0CD4  3000               	movlw	0
  1393  0CD5  00B8               	movwf	___fldiv@a+1
  1394  0CD6  3000               	movlw	0
  1395  0CD7  00B7               	movwf	___fldiv@a
  1396  0CD8  087A               	movf	_var_adc1,w	;volatile
  1397  0CD9  1683               	bsf	3,5	;RP0=1, select bank1
  1398  0CDA  1303               	bcf	3,6	;RP1=0, select bank1
  1399  0CDB  00D2               	movwf	??_main^(0+128)
  1400  0CDC  01D3               	clrf	(??_main^(0+128)+1)
  1401  0CDD  01D4               	clrf	(??_main^(0+128)+2)
  1402  0CDE  01D5               	clrf	(??_main^(0+128)+3)
  1403  0CDF  0855               	movf	(??_main+3)^(0+128),w
  1404  0CE0  1283               	bcf	3,5	;RP0=0, select bank0
  1405  0CE1  1303               	bcf	3,6	;RP1=0, select bank0
  1406  0CE2  00AC               	movwf	___xxtofl@val+3
  1407  0CE3  1683               	bsf	3,5	;RP0=1, select bank1
  1408  0CE4  1303               	bcf	3,6	;RP1=0, select bank1
  1409  0CE5  0854               	movf	(??_main+2)^(0+128),w
  1410  0CE6  1283               	bcf	3,5	;RP0=0, select bank0
  1411  0CE7  1303               	bcf	3,6	;RP1=0, select bank0
  1412  0CE8  00AB               	movwf	___xxtofl@val+2
  1413  0CE9  1683               	bsf	3,5	;RP0=1, select bank1
  1414  0CEA  1303               	bcf	3,6	;RP1=0, select bank1
  1415  0CEB  0853               	movf	(??_main+1)^(0+128),w
  1416  0CEC  1283               	bcf	3,5	;RP0=0, select bank0
  1417  0CED  1303               	bcf	3,6	;RP1=0, select bank0
  1418  0CEE  00AA               	movwf	___xxtofl@val+1
  1419  0CEF  1683               	bsf	3,5	;RP0=1, select bank1
  1420  0CF0  1303               	bcf	3,6	;RP1=0, select bank1
  1421  0CF1  0852               	movf	??_main^(0+128),w
  1422  0CF2  1283               	bcf	3,5	;RP0=0, select bank0
  1423  0CF3  1303               	bcf	3,6	;RP1=0, select bank0
  1424  0CF4  00A9               	movwf	___xxtofl@val
  1425  0CF5  3001               	movlw	1
  1426  0CF6  120A  158A  20F1  120A  158A  	fcall	___xxtofl
  1427  0CFB  1283               	bcf	3,5	;RP0=0, select bank0
  1428  0CFC  1303               	bcf	3,6	;RP1=0, select bank0
  1429  0CFD  082C               	movf	?___xxtofl+3,w
  1430  0CFE  00BE               	movwf	___fldiv@b+3
  1431  0CFF  082B               	movf	?___xxtofl+2,w
  1432  0D00  00BD               	movwf	___fldiv@b+2
  1433  0D01  082A               	movf	?___xxtofl+1,w
  1434  0D02  00BC               	movwf	___fldiv@b+1
  1435  0D03  0829               	movf	?___xxtofl,w
  1436  0D04  00BB               	movwf	___fldiv@b
  1437  0D05  120A  158A  21AD  120A  158A  	fcall	___fldiv
  1438  0D0A  1283               	bcf	3,5	;RP0=0, select bank0
  1439  0D0B  1303               	bcf	3,6	;RP1=0, select bank0
  1440  0D0C  083A               	movf	?___fldiv+3,w
  1441  0D0D  00D8               	movwf	___flmul@a+3
  1442  0D0E  0839               	movf	?___fldiv+2,w
  1443  0D0F  00D7               	movwf	___flmul@a+2
  1444  0D10  0838               	movf	?___fldiv+1,w
  1445  0D11  00D6               	movwf	___flmul@a+1
  1446  0D12  0837               	movf	?___fldiv,w
  1447  0D13  00D5               	movwf	___flmul@a
  1448  0D14  120A  118A  2480  120A  158A  	fcall	___flmul
  1449  0D19  1283               	bcf	3,5	;RP0=0, select bank0
  1450  0D1A  1303               	bcf	3,6	;RP1=0, select bank0
  1451  0D1B  0854               	movf	?___flmul+3,w
  1452  0D1C  1683               	bsf	3,5	;RP0=1, select bank1
  1453  0D1D  1303               	bcf	3,6	;RP1=0, select bank1
  1454  0D1E  00A3               	movwf	(_conv1+3)^(0+128)
  1455  0D1F  1283               	bcf	3,5	;RP0=0, select bank0
  1456  0D20  1303               	bcf	3,6	;RP1=0, select bank0
  1457  0D21  0853               	movf	?___flmul+2,w
  1458  0D22  1683               	bsf	3,5	;RP0=1, select bank1
  1459  0D23  1303               	bcf	3,6	;RP1=0, select bank1
  1460  0D24  00A2               	movwf	(_conv1+2)^(0+128)
  1461  0D25  1283               	bcf	3,5	;RP0=0, select bank0
  1462  0D26  1303               	bcf	3,6	;RP1=0, select bank0
  1463  0D27  0852               	movf	?___flmul+1,w
  1464  0D28  1683               	bsf	3,5	;RP0=1, select bank1
  1465  0D29  1303               	bcf	3,6	;RP1=0, select bank1
  1466  0D2A  00A1               	movwf	(_conv1+1)^(0+128)
  1467  0D2B  1283               	bcf	3,5	;RP0=0, select bank0
  1468  0D2C  1303               	bcf	3,6	;RP1=0, select bank0
  1469  0D2D  0851               	movf	?___flmul,w
  1470  0D2E  1683               	bsf	3,5	;RP0=1, select bank1
  1471  0D2F  1303               	bcf	3,6	;RP1=0, select bank1
  1472  0D30  00A0               	movwf	_conv1^(0+128)
  1473  0D31                     l3458:
  1474  0D31  0823               	movf	(_conv1+3)^(0+128),w
  1475  0D32  00C0               	movwf	(convert@a+3)^(0+128)
  1476  0D33  0822               	movf	(_conv1+2)^(0+128),w
  1477  0D34  00BF               	movwf	(convert@a+2)^(0+128)
  1478  0D35  0821               	movf	(_conv1+1)^(0+128),w
  1479  0D36  00BE               	movwf	(convert@a+1)^(0+128)
  1480  0D37  0820               	movf	_conv1^(0+128),w
  1481  0D38  00BD               	movwf	convert@a^(0+128)
  1482  0D39  3002               	movlw	2
  1483  0D3A  00C1               	movwf	convert@place^(0+128)
  1484  0D3B  3000               	movlw	0
  1485  0D3C  00C2               	movwf	(convert@place^(0+128)+1)
  1486  0D3D  30A9               	movlw	(low (_adc1| 0))& (0+255)
  1487  0D3E  120A  118A  201E  120A  158A  	fcall	_convert
  1488  0D43                     l3460:
  1489  0D43  01F6               	clrf	Lcd_Set_Cursor@b
  1490  0D44  0AF6               	incf	Lcd_Set_Cursor@b,f
  1491  0D45  3002               	movlw	2
  1492  0D46  160A  118A  24AC  120A  158A  	fcall	_Lcd_Set_Cursor
  1493  0D4B                     l3462:
  1494  0D4B  30B3               	movlw	(low (_adc0| 0))& (0+255)
  1495  0D4C  00F5               	movwf	Lcd_Write_String@a
  1496  0D4D  3000               	movlw	0
  1497  0D4E  00F6               	movwf	Lcd_Write_String@a+1
  1498  0D4F  160A  118A  2560  120A  158A  	fcall	_Lcd_Write_String
  1499  0D54                     l3464:
  1500  0D54  3008               	movlw	8
  1501  0D55  1683               	bsf	3,5	;RP0=1, select bank1
  1502  0D56  1303               	bcf	3,6	;RP1=0, select bank1
  1503  0D57  00D2               	movwf	??_main^(0+128)
  1504  0D58  0852               	movf	??_main^(0+128),w
  1505  0D59  00F6               	movwf	Lcd_Set_Cursor@b
  1506  0D5A  3002               	movlw	2
  1507  0D5B  160A  118A  24AC  120A  158A  	fcall	_Lcd_Set_Cursor
  1508  0D60                     l3466:
  1509  0D60  30A9               	movlw	(low (_adc1| 0))& (0+255)
  1510  0D61  00F5               	movwf	Lcd_Write_String@a
  1511  0D62  3000               	movlw	0
  1512  0D63  00F6               	movwf	Lcd_Write_String@a+1
  1513  0D64  160A  118A  2560  120A  158A  	fcall	_Lcd_Write_String
  1514  0D69                     l3468:
  1515  0D69  301A               	movlw	26
  1516  0D6A  1683               	bsf	3,5	;RP0=1, select bank1
  1517  0D6B  1303               	bcf	3,6	;RP1=0, select bank1
  1518  0D6C  00D3               	movwf	(??_main^(0+128)+1)
  1519  0D6D  30F7               	movlw	247
  1520  0D6E  00D2               	movwf	??_main^(0+128)
  1521  0D6F                     u4487:
  1522  0D6F  0BD2               	decfsz	??_main^(0+128),f
  1523  0D70  2D6F               	goto	u4487
  1524  0D71  0BD3               	decfsz	(??_main^(0+128)+1),f
  1525  0D72  2D6F               	goto	u4487
  1526  0D73  2D74               	nop2
  1527  0D74  2BC5               	goto	l3418
  1528  0D75  120A  118A  280C   	ljmp	start
  1529  0D78                     __end_of_main:
  1530                           
  1531                           	psect	text1
  1532  1671                     __ptext1:	
  1533 ;; *************** function _start_ch *****************
  1534 ;; Defined at:
  1535 ;;		line 60 in file "ADC_LIB.c"
  1536 ;; Parameters:    Size  Location     Type
  1537 ;;  channel         1    wreg     unsigned char 
  1538 ;; Auto vars:     Size  Location     Type
  1539 ;;  channel         1    4[COMMON] unsigned char 
  1540 ;; Return value:  Size  Location     Type
  1541 ;;                  1    wreg      void 
  1542 ;; Registers used:
  1543 ;;		wreg, fsr0l, fsr0h, status,2, status,0
  1544 ;; Tracked objects:
  1545 ;;		On entry : 0/0
  1546 ;;		On exit  : 0/0
  1547 ;;		Unchanged: 0/0
  1548 ;; Data sizes:     COMMON   BANK0   BANK1   BANK3   BANK2
  1549 ;;      Params:         0       0       0       0       0
  1550 ;;      Locals:         1       0       0       0       0
  1551 ;;      Temps:          2       0       0       0       0
  1552 ;;      Totals:         3       0       0       0       0
  1553 ;;Total ram usage:        3 bytes
  1554 ;; Hardware stack levels used:    1
  1555 ;; Hardware stack levels required when called:    1
  1556 ;; This function calls:
  1557 ;;		Nothing
  1558 ;; This function is called by:
  1559 ;;		_main
  1560 ;; This function uses a non-reentrant model
  1561 ;;
  1562                           
  1563                           
  1564                           ;psect for function _start_ch
  1565  1671                     _start_ch:
  1566                           
  1567                           ;incstack = 0
  1568                           ; Regs used in _start_ch: [wreg-fsr0h+status,2+status,0]
  1569                           ;start_ch@channel stored from wreg
  1570  1671  00F4               	movwf	start_ch@channel
  1571  1672                     l2668:
  1572                           
  1573                           ;ADC_LIB.c: 61:     switch (channel) {
  1574  1672  2EAB               	goto	l2672
  1575  1673                     l179:	
  1576                           ;ADC_LIB.c: 62:         case 0:
  1577                           
  1578                           
  1579                           ;ADC_LIB.c: 63:             ANSELbits.ANS0 = 1;
  1580  1673  1683               	bsf	3,5	;RP0=1, select bank3
  1581  1674  1703               	bsf	3,6	;RP1=1, select bank3
  1582  1675  1408               	bsf	8,0	;volatile
  1583                           
  1584                           ;ADC_LIB.c: 64:             break;
  1585  1676  2EDF               	goto	l194
  1586  1677                     l181:	
  1587                           ;ADC_LIB.c: 65:         case 1:
  1588                           
  1589                           
  1590                           ;ADC_LIB.c: 66:             ANSELbits.ANS1 = 1;
  1591  1677  1683               	bsf	3,5	;RP0=1, select bank3
  1592  1678  1703               	bsf	3,6	;RP1=1, select bank3
  1593  1679  1488               	bsf	8,1	;volatile
  1594                           
  1595                           ;ADC_LIB.c: 67:             break;
  1596  167A  2EDF               	goto	l194
  1597  167B                     l182:	
  1598                           ;ADC_LIB.c: 68:         case 2:
  1599                           
  1600                           
  1601                           ;ADC_LIB.c: 69:             ANSELbits.ANS2 = 1;
  1602  167B  1683               	bsf	3,5	;RP0=1, select bank3
  1603  167C  1703               	bsf	3,6	;RP1=1, select bank3
  1604  167D  1508               	bsf	8,2	;volatile
  1605                           
  1606                           ;ADC_LIB.c: 70:             break;
  1607  167E  2EDF               	goto	l194
  1608  167F                     l183:	
  1609                           ;ADC_LIB.c: 71:         case 3:
  1610                           
  1611                           
  1612                           ;ADC_LIB.c: 72:             ANSELbits.ANS3 = 1;
  1613  167F  1683               	bsf	3,5	;RP0=1, select bank3
  1614  1680  1703               	bsf	3,6	;RP1=1, select bank3
  1615  1681  1588               	bsf	8,3	;volatile
  1616                           
  1617                           ;ADC_LIB.c: 73:             break;
  1618  1682  2EDF               	goto	l194
  1619  1683                     l184:	
  1620                           ;ADC_LIB.c: 74:         case 4:
  1621                           
  1622                           
  1623                           ;ADC_LIB.c: 75:             ANSELbits.ANS4 = 1;
  1624  1683  1683               	bsf	3,5	;RP0=1, select bank3
  1625  1684  1703               	bsf	3,6	;RP1=1, select bank3
  1626  1685  1608               	bsf	8,4	;volatile
  1627                           
  1628                           ;ADC_LIB.c: 76:             break;
  1629  1686  2EDF               	goto	l194
  1630  1687                     l185:	
  1631                           ;ADC_LIB.c: 77:         case 5:
  1632                           
  1633                           
  1634                           ;ADC_LIB.c: 78:             ANSELbits.ANS5 = 1;
  1635  1687  1683               	bsf	3,5	;RP0=1, select bank3
  1636  1688  1703               	bsf	3,6	;RP1=1, select bank3
  1637  1689  1688               	bsf	8,5	;volatile
  1638                           
  1639                           ;ADC_LIB.c: 79:             break;
  1640  168A  2EDF               	goto	l194
  1641  168B                     l186:	
  1642                           ;ADC_LIB.c: 80:         case 6:
  1643                           
  1644                           
  1645                           ;ADC_LIB.c: 81:             ANSELbits.ANS6 = 1;
  1646  168B  1683               	bsf	3,5	;RP0=1, select bank3
  1647  168C  1703               	bsf	3,6	;RP1=1, select bank3
  1648  168D  1708               	bsf	8,6	;volatile
  1649                           
  1650                           ;ADC_LIB.c: 82:             break;
  1651  168E  2EDF               	goto	l194
  1652  168F                     l187:	
  1653                           ;ADC_LIB.c: 83:         case 7:
  1654                           
  1655                           
  1656                           ;ADC_LIB.c: 84:             ANSELbits.ANS7 = 1;
  1657  168F  1683               	bsf	3,5	;RP0=1, select bank3
  1658  1690  1703               	bsf	3,6	;RP1=1, select bank3
  1659  1691  1788               	bsf	8,7	;volatile
  1660                           
  1661                           ;ADC_LIB.c: 85:             break;
  1662  1692  2EDF               	goto	l194
  1663  1693                     l188:	
  1664                           ;ADC_LIB.c: 86:         case 8:
  1665                           
  1666                           
  1667                           ;ADC_LIB.c: 87:             ANSELHbits.ANS8 = 1;
  1668  1693  1683               	bsf	3,5	;RP0=1, select bank3
  1669  1694  1703               	bsf	3,6	;RP1=1, select bank3
  1670  1695  1409               	bsf	9,0	;volatile
  1671                           
  1672                           ;ADC_LIB.c: 88:             break;
  1673  1696  2EDF               	goto	l194
  1674  1697                     l189:	
  1675                           ;ADC_LIB.c: 89:         case 9:
  1676                           
  1677                           
  1678                           ;ADC_LIB.c: 90:             ANSELHbits.ANS9 = 1;
  1679  1697  1683               	bsf	3,5	;RP0=1, select bank3
  1680  1698  1703               	bsf	3,6	;RP1=1, select bank3
  1681  1699  1489               	bsf	9,1	;volatile
  1682                           
  1683                           ;ADC_LIB.c: 91:             break;
  1684  169A  2EDF               	goto	l194
  1685  169B                     l190:	
  1686                           ;ADC_LIB.c: 92:         case 10:
  1687                           
  1688                           
  1689                           ;ADC_LIB.c: 93:             ANSELHbits.ANS10 = 1;
  1690  169B  1683               	bsf	3,5	;RP0=1, select bank3
  1691  169C  1703               	bsf	3,6	;RP1=1, select bank3
  1692  169D  1509               	bsf	9,2	;volatile
  1693                           
  1694                           ;ADC_LIB.c: 94:             break;
  1695  169E  2EDF               	goto	l194
  1696  169F                     l191:	
  1697                           ;ADC_LIB.c: 95:         case 11:
  1698                           
  1699                           
  1700                           ;ADC_LIB.c: 96:             ANSELHbits.ANS11 = 1;
  1701  169F  1683               	bsf	3,5	;RP0=1, select bank3
  1702  16A0  1703               	bsf	3,6	;RP1=1, select bank3
  1703  16A1  1589               	bsf	9,3	;volatile
  1704                           
  1705                           ;ADC_LIB.c: 97:             break;
  1706  16A2  2EDF               	goto	l194
  1707  16A3                     l192:	
  1708                           ;ADC_LIB.c: 98:         case 12:
  1709                           
  1710                           
  1711                           ;ADC_LIB.c: 99:             ANSELHbits.ANS12 = 1;
  1712  16A3  1683               	bsf	3,5	;RP0=1, select bank3
  1713  16A4  1703               	bsf	3,6	;RP1=1, select bank3
  1714  16A5  1609               	bsf	9,4	;volatile
  1715                           
  1716                           ;ADC_LIB.c: 100:             break;
  1717  16A6  2EDF               	goto	l194
  1718  16A7                     l193:	
  1719                           ;ADC_LIB.c: 101:         case 13:
  1720                           
  1721                           
  1722                           ;ADC_LIB.c: 102:             ANSELHbits.ANS13 = 1;
  1723  16A7  1683               	bsf	3,5	;RP0=1, select bank3
  1724  16A8  1703               	bsf	3,6	;RP1=1, select bank3
  1725  16A9  1689               	bsf	9,5	;volatile
  1726                           
  1727                           ;ADC_LIB.c: 103:             break;
  1728  16AA  2EDF               	goto	l194
  1729  16AB                     l2672:
  1730  16AB  0874               	movf	start_ch@channel,w
  1731  16AC  00F2               	movwf	??_start_ch
  1732  16AD  01F3               	clrf	??_start_ch+1
  1733                           
  1734                           ; Switch on 2 bytes has been partitioned into a top level switch of size 1, and 1 sub-sw
      +                          itches
  1735                           ; Switch size 1, requested type "simple"
  1736                           ; Number of cases is 1, Range of values is 0 to 0
  1737                           ; switch strategies available:
  1738                           ; Name         Instructions Cycles
  1739                           ; simple_byte            4     3 (average)
  1740                           ; direct_byte           11     8 (fixed)
  1741                           ; jumptable            260     6 (fixed)
  1742                           ;	Chosen strategy is simple_byte
  1743  16AE  0873               	movf	??_start_ch+1,w
  1744  16AF  3A00               	xorlw	0	; case 0
  1745  16B0  1903               	skipnz
  1746  16B1  2EB3               	goto	l3554
  1747  16B2  2EDF               	goto	l194
  1748  16B3                     l3554:
  1749                           
  1750                           ; Switch size 1, requested type "simple"
  1751                           ; Number of cases is 14, Range of values is 0 to 13
  1752                           ; switch strategies available:
  1753                           ; Name         Instructions Cycles
  1754                           ; simple_byte           43    22 (average)
  1755                           ; direct_byte           50     8 (fixed)
  1756                           ; jumptable            260     6 (fixed)
  1757                           ;	Chosen strategy is simple_byte
  1758  16B3  0872               	movf	??_start_ch,w
  1759  16B4  3A00               	xorlw	0	; case 0
  1760  16B5  1903               	skipnz
  1761  16B6  2E73               	goto	l179
  1762  16B7  3A01               	xorlw	1	; case 1
  1763  16B8  1903               	skipnz
  1764  16B9  2E77               	goto	l181
  1765  16BA  3A03               	xorlw	3	; case 2
  1766  16BB  1903               	skipnz
  1767  16BC  2E7B               	goto	l182
  1768  16BD  3A01               	xorlw	1	; case 3
  1769  16BE  1903               	skipnz
  1770  16BF  2E7F               	goto	l183
  1771  16C0  3A07               	xorlw	7	; case 4
  1772  16C1  1903               	skipnz
  1773  16C2  2E83               	goto	l184
  1774  16C3  3A01               	xorlw	1	; case 5
  1775  16C4  1903               	skipnz
  1776  16C5  2E87               	goto	l185
  1777  16C6  3A03               	xorlw	3	; case 6
  1778  16C7  1903               	skipnz
  1779  16C8  2E8B               	goto	l186
  1780  16C9  3A01               	xorlw	1	; case 7
  1781  16CA  1903               	skipnz
  1782  16CB  2E8F               	goto	l187
  1783  16CC  3A0F               	xorlw	15	; case 8
  1784  16CD  1903               	skipnz
  1785  16CE  2E93               	goto	l188
  1786  16CF  3A01               	xorlw	1	; case 9
  1787  16D0  1903               	skipnz
  1788  16D1  2E97               	goto	l189
  1789  16D2  3A03               	xorlw	3	; case 10
  1790  16D3  1903               	skipnz
  1791  16D4  2E9B               	goto	l190
  1792  16D5  3A01               	xorlw	1	; case 11
  1793  16D6  1903               	skipnz
  1794  16D7  2E9F               	goto	l191
  1795  16D8  3A07               	xorlw	7	; case 12
  1796  16D9  1903               	skipnz
  1797  16DA  2EA3               	goto	l192
  1798  16DB  3A01               	xorlw	1	; case 13
  1799  16DC  1903               	skipnz
  1800  16DD  2EA7               	goto	l193
  1801  16DE  2EDF               	goto	l194
  1802  16DF                     l194:
  1803  16DF  0008               	return
  1804  16E0                     __end_of_start_ch:
  1805                           
  1806                           	psect	text2
  1807  15A6                     __ptext2:	
  1808 ;; *************** function _start_adc *****************
  1809 ;; Defined at:
  1810 ;;		line 11 in file "ADC_LIB.c"
  1811 ;; Parameters:    Size  Location     Type
  1812 ;;  frec            1    wreg     unsigned char 
  1813 ;;  isr             1    2[COMMON] unsigned char 
  1814 ;;  Vref            1    3[COMMON] unsigned char 
  1815 ;;  justRL          1    4[COMMON] unsigned char 
  1816 ;; Auto vars:     Size  Location     Type
  1817 ;;  frec            1    7[COMMON] unsigned char 
  1818 ;; Return value:  Size  Location     Type
  1819 ;;                  1    wreg      void 
  1820 ;; Registers used:
  1821 ;;		wreg, fsr0l, fsr0h, status,2, status,0
  1822 ;; Tracked objects:
  1823 ;;		On entry : 0/0
  1824 ;;		On exit  : 0/0
  1825 ;;		Unchanged: 0/0
  1826 ;; Data sizes:     COMMON   BANK0   BANK1   BANK3   BANK2
  1827 ;;      Params:         3       0       0       0       0
  1828 ;;      Locals:         1       0       0       0       0
  1829 ;;      Temps:          2       0       0       0       0
  1830 ;;      Totals:         6       0       0       0       0
  1831 ;;Total ram usage:        6 bytes
  1832 ;; Hardware stack levels used:    1
  1833 ;; Hardware stack levels required when called:    1
  1834 ;; This function calls:
  1835 ;;		Nothing
  1836 ;; This function is called by:
  1837 ;;		_main
  1838 ;; This function uses a non-reentrant model
  1839 ;;
  1840                           
  1841                           
  1842                           ;psect for function _start_adc
  1843  15A6                     _start_adc:
  1844                           
  1845                           ;incstack = 0
  1846                           ; Regs used in _start_adc: [wreg-fsr0h+status,2+status,0]
  1847                           ;start_adc@frec stored from wreg
  1848  15A6  00F7               	movwf	start_adc@frec
  1849  15A7                     l2642:
  1850                           
  1851                           ;ADC_LIB.c: 12:     ADCON0bits.ADON = 1;
  1852  15A7  1283               	bcf	3,5	;RP0=0, select bank0
  1853  15A8  1303               	bcf	3,6	;RP1=0, select bank0
  1854  15A9  141F               	bsf	31,0	;volatile
  1855                           
  1856                           ;ADC_LIB.c: 13:     switch (frec) {
  1857  15AA  2DB7               	goto	l2646
  1858  15AB                     l161:	
  1859                           ;ADC_LIB.c: 14:         case 1:
  1860                           
  1861                           
  1862                           ;ADC_LIB.c: 15:             ADCON0bits.ADCS0 = 0;
  1863  15AB  131F               	bcf	31,6	;volatile
  1864                           
  1865                           ;ADC_LIB.c: 16:             ADCON0bits.ADCS1 = 0;
  1866  15AC  139F               	bcf	31,7	;volatile
  1867                           
  1868                           ;ADC_LIB.c: 17:             break;
  1869  15AD  2DCD               	goto	l2648
  1870  15AE                     l163:	
  1871                           ;ADC_LIB.c: 18:         case 2:
  1872                           
  1873                           
  1874                           ;ADC_LIB.c: 19:             ADCON0bits.ADCS0 = 1;
  1875  15AE  171F               	bsf	31,6	;volatile
  1876                           
  1877                           ;ADC_LIB.c: 20:             ADCON0bits.ADCS1 = 0;
  1878  15AF  139F               	bcf	31,7	;volatile
  1879                           
  1880                           ;ADC_LIB.c: 21:             break;
  1881  15B0  2DCD               	goto	l2648
  1882  15B1                     l164:	
  1883                           ;ADC_LIB.c: 22:         case 3:
  1884                           
  1885                           
  1886                           ;ADC_LIB.c: 23:             ADCON0bits.ADCS0 = 0;
  1887  15B1  131F               	bcf	31,6	;volatile
  1888                           
  1889                           ;ADC_LIB.c: 24:             ADCON0bits.ADCS1 = 1;
  1890  15B2  179F               	bsf	31,7	;volatile
  1891                           
  1892                           ;ADC_LIB.c: 25:             break;
  1893  15B3  2DCD               	goto	l2648
  1894  15B4                     l165:	
  1895                           ;ADC_LIB.c: 26:         case 4:
  1896                           
  1897                           
  1898                           ;ADC_LIB.c: 27:             ADCON0bits.ADCS0 = 1;
  1899  15B4  171F               	bsf	31,6	;volatile
  1900                           
  1901                           ;ADC_LIB.c: 28:             ADCON0bits.ADCS1 = 1;
  1902  15B5  179F               	bsf	31,7	;volatile
  1903                           
  1904                           ;ADC_LIB.c: 29:             break;
  1905  15B6  2DCD               	goto	l2648
  1906  15B7                     l2646:
  1907  15B7  0877               	movf	start_adc@frec,w
  1908  15B8  00F5               	movwf	??_start_adc
  1909  15B9  01F6               	clrf	??_start_adc+1
  1910                           
  1911                           ; Switch on 2 bytes has been partitioned into a top level switch of size 1, and 1 sub-sw
      +                          itches
  1912                           ; Switch size 1, requested type "simple"
  1913                           ; Number of cases is 1, Range of values is 0 to 0
  1914                           ; switch strategies available:
  1915                           ; Name         Instructions Cycles
  1916                           ; simple_byte            4     3 (average)
  1917                           ; direct_byte           11     8 (fixed)
  1918                           ; jumptable            260     6 (fixed)
  1919                           ;	Chosen strategy is simple_byte
  1920  15BA  0876               	movf	??_start_adc+1,w
  1921  15BB  3A00               	xorlw	0	; case 0
  1922  15BC  1903               	skipnz
  1923  15BD  2DBF               	goto	l3556
  1924  15BE  2DCD               	goto	l2648
  1925  15BF                     l3556:
  1926                           
  1927                           ; Switch size 1, requested type "simple"
  1928                           ; Number of cases is 4, Range of values is 1 to 4
  1929                           ; switch strategies available:
  1930                           ; Name         Instructions Cycles
  1931                           ; simple_byte           13     7 (average)
  1932                           ; direct_byte           23    11 (fixed)
  1933                           ; jumptable            263     9 (fixed)
  1934                           ;	Chosen strategy is simple_byte
  1935  15BF  0875               	movf	??_start_adc,w
  1936  15C0  3A01               	xorlw	1	; case 1
  1937  15C1  1903               	skipnz
  1938  15C2  2DAB               	goto	l161
  1939  15C3  3A03               	xorlw	3	; case 2
  1940  15C4  1903               	skipnz
  1941  15C5  2DAE               	goto	l163
  1942  15C6  3A01               	xorlw	1	; case 3
  1943  15C7  1903               	skipnz
  1944  15C8  2DB1               	goto	l164
  1945  15C9  3A07               	xorlw	7	; case 4
  1946  15CA  1903               	skipnz
  1947  15CB  2DB4               	goto	l165
  1948  15CC  2DCD               	goto	l2648
  1949  15CD                     l2648:
  1950                           
  1951                           ;ADC_LIB.c: 31:     if (isr == 1) {
  1952  15CD  0372               	decf	start_adc@isr,w
  1953  15CE  1D03               	btfss	3,2
  1954  15CF  2DD1               	goto	u3501
  1955  15D0  2DD2               	goto	u3500
  1956  15D1                     u3501:
  1957  15D1  2DD8               	goto	l2652
  1958  15D2                     u3500:
  1959  15D2                     l2650:
  1960                           
  1961                           ;ADC_LIB.c: 32:         PIE1bits.ADIE = 1;
  1962  15D2  1683               	bsf	3,5	;RP0=1, select bank1
  1963  15D3  1303               	bcf	3,6	;RP1=0, select bank1
  1964  15D4  170C               	bsf	12,6	;volatile
  1965                           
  1966                           ;ADC_LIB.c: 33:         PIR1bits.ADIF = 0;
  1967  15D5  1283               	bcf	3,5	;RP0=0, select bank0
  1968  15D6  1303               	bcf	3,6	;RP1=0, select bank0
  1969  15D7  130C               	bcf	12,6	;volatile
  1970  15D8                     l2652:
  1971                           
  1972                           ;ADC_LIB.c: 35:     if (justRL == 0) {
  1973  15D8  0874               	movf	start_adc@justRL,w
  1974  15D9  1D03               	btfss	3,2
  1975  15DA  2DDC               	goto	u3511
  1976  15DB  2DDD               	goto	u3510
  1977  15DC                     u3511:
  1978  15DC  2DE1               	goto	l167
  1979  15DD                     u3510:
  1980  15DD                     l2654:
  1981                           
  1982                           ;ADC_LIB.c: 36:         ADCON1bits.ADFM = 0;
  1983  15DD  1683               	bsf	3,5	;RP0=1, select bank1
  1984  15DE  1303               	bcf	3,6	;RP1=0, select bank1
  1985  15DF  139F               	bcf	31,7	;volatile
  1986                           
  1987                           ;ADC_LIB.c: 37:     } else {
  1988  15E0  2DF1               	goto	l2658
  1989  15E1                     l167:
  1990                           
  1991                           ;ADC_LIB.c: 38:         ADCON1bits.ADFM = 1;
  1992  15E1  1683               	bsf	3,5	;RP0=1, select bank1
  1993  15E2  1303               	bcf	3,6	;RP1=0, select bank1
  1994  15E3  179F               	bsf	31,7	;volatile
  1995  15E4  2DF1               	goto	l2658
  1996  15E5                     l170:	
  1997                           ;ADC_LIB.c: 41:         case 0:
  1998                           
  1999                           
  2000                           ;ADC_LIB.c: 42:             ADCON1bits.VCFG0 = 0;
  2001  15E5  121F               	bcf	31,4	;volatile
  2002                           
  2003                           ;ADC_LIB.c: 43:             ADCON1bits.VCFG1 = 0;
  2004  15E6  129F               	bcf	31,5	;volatile
  2005                           
  2006                           ;ADC_LIB.c: 44:             break;
  2007  15E7  2E07               	goto	l175
  2008  15E8                     l172:	
  2009                           ;ADC_LIB.c: 45:         case 1:
  2010                           
  2011                           
  2012                           ;ADC_LIB.c: 46:             ADCON1bits.VCFG0 = 1;
  2013  15E8  161F               	bsf	31,4	;volatile
  2014                           
  2015                           ;ADC_LIB.c: 47:             ADCON1bits.VCFG1 = 0;
  2016  15E9  129F               	bcf	31,5	;volatile
  2017                           
  2018                           ;ADC_LIB.c: 48:             break;
  2019  15EA  2E07               	goto	l175
  2020  15EB                     l173:	
  2021                           ;ADC_LIB.c: 49:         case 2:
  2022                           
  2023                           
  2024                           ;ADC_LIB.c: 50:             ADCON1bits.VCFG0 = 0;
  2025  15EB  121F               	bcf	31,4	;volatile
  2026                           
  2027                           ;ADC_LIB.c: 51:             ADCON1bits.VCFG1 = 1;
  2028  15EC  169F               	bsf	31,5	;volatile
  2029                           
  2030                           ;ADC_LIB.c: 52:             break;
  2031  15ED  2E07               	goto	l175
  2032  15EE                     l174:	
  2033                           ;ADC_LIB.c: 53:         case 3:
  2034                           
  2035                           
  2036                           ;ADC_LIB.c: 54:             ADCON1bits.VCFG0 = 1;
  2037  15EE  161F               	bsf	31,4	;volatile
  2038                           
  2039                           ;ADC_LIB.c: 55:             ADCON1bits.VCFG1 = 1;
  2040  15EF  169F               	bsf	31,5	;volatile
  2041                           
  2042                           ;ADC_LIB.c: 56:             break;
  2043  15F0  2E07               	goto	l175
  2044  15F1                     l2658:
  2045  15F1  0873               	movf	start_adc@Vref,w
  2046  15F2  00F5               	movwf	??_start_adc
  2047  15F3  01F6               	clrf	??_start_adc+1
  2048                           
  2049                           ; Switch on 2 bytes has been partitioned into a top level switch of size 1, and 1 sub-sw
      +                          itches
  2050                           ; Switch size 1, requested type "simple"
  2051                           ; Number of cases is 1, Range of values is 0 to 0
  2052                           ; switch strategies available:
  2053                           ; Name         Instructions Cycles
  2054                           ; simple_byte            4     3 (average)
  2055                           ; direct_byte           11     8 (fixed)
  2056                           ; jumptable            260     6 (fixed)
  2057                           ;	Chosen strategy is simple_byte
  2058  15F4  0876               	movf	??_start_adc+1,w
  2059  15F5  3A00               	xorlw	0	; case 0
  2060  15F6  1903               	skipnz
  2061  15F7  2DF9               	goto	l3558
  2062  15F8  2E07               	goto	l175
  2063  15F9                     l3558:
  2064                           
  2065                           ; Switch size 1, requested type "simple"
  2066                           ; Number of cases is 4, Range of values is 0 to 3
  2067                           ; switch strategies available:
  2068                           ; Name         Instructions Cycles
  2069                           ; simple_byte           13     7 (average)
  2070                           ; direct_byte           20     8 (fixed)
  2071                           ; jumptable            260     6 (fixed)
  2072                           ;	Chosen strategy is simple_byte
  2073  15F9  0875               	movf	??_start_adc,w
  2074  15FA  3A00               	xorlw	0	; case 0
  2075  15FB  1903               	skipnz
  2076  15FC  2DE5               	goto	l170
  2077  15FD  3A01               	xorlw	1	; case 1
  2078  15FE  1903               	skipnz
  2079  15FF  2DE8               	goto	l172
  2080  1600  3A03               	xorlw	3	; case 2
  2081  1601  1903               	skipnz
  2082  1602  2DEB               	goto	l173
  2083  1603  3A01               	xorlw	1	; case 3
  2084  1604  1903               	skipnz
  2085  1605  2DEE               	goto	l174
  2086  1606  2E07               	goto	l175
  2087  1607                     l175:
  2088  1607  0008               	return
  2089  1608                     __end_of_start_adc:
  2090                           
  2091                           	psect	text3
  2092  001E                     __ptext3:	
  2093 ;; *************** function _convert *****************
  2094 ;; Defined at:
  2095 ;;		line 77 in file "LCD.c"
  2096 ;; Parameters:    Size  Location     Type
  2097 ;;  data            1    wreg     PTR unsigned char 
  2098 ;;		 -> adc1(10), adc0(10), 
  2099 ;;  a               4    0[BANK1 ] float 
  2100 ;;  place           2    4[BANK1 ] int 
  2101 ;; Auto vars:     Size  Location     Type
  2102 ;;  data            1   10[BANK1 ] PTR unsigned char 
  2103 ;;		 -> adc1(10), adc0(10), 
  2104 ;;  x               4   11[BANK1 ] float 
  2105 ;;  mu              2   19[BANK1 ] int 
  2106 ;;  digits          2   17[BANK1 ] int 
  2107 ;;  i               2   15[BANK1 ] int 
  2108 ;;  j               2    8[BANK1 ] int 
  2109 ;;  temp            2    6[BANK1 ] int 
  2110 ;; Return value:  Size  Location     Type
  2111 ;;                  1    wreg      void 
  2112 ;; Registers used:
  2113 ;;		wreg, fsr0l, fsr0h, status,2, status,0, btemp+1, pclath, cstack
  2114 ;; Tracked objects:
  2115 ;;		On entry : 0/0
  2116 ;;		On exit  : 0/0
  2117 ;;		Unchanged: 0/0
  2118 ;; Data sizes:     COMMON   BANK0   BANK1   BANK3   BANK2
  2119 ;;      Params:         0       0       6       0       0
  2120 ;;      Locals:         0       0      15       0       0
  2121 ;;      Temps:          0       2       0       0       0
  2122 ;;      Totals:         0       2      21       0       0
  2123 ;;Total ram usage:       23 bytes
  2124 ;; Hardware stack levels used:    1
  2125 ;; Hardware stack levels required when called:    3
  2126 ;; This function calls:
  2127 ;;		___awdiv
  2128 ;;		___fldiv
  2129 ;;		___flge
  2130 ;;		___flmul
  2131 ;;		___flsub
  2132 ;;		___fltol
  2133 ;;		___wmul
  2134 ;;		___xxtofl
  2135 ;; This function is called by:
  2136 ;;		_main
  2137 ;; This function uses a non-reentrant model
  2138 ;;
  2139                           
  2140                           
  2141                           ;psect for function _convert
  2142  001E                     _convert:
  2143                           
  2144                           ;incstack = 0
  2145                           ; Regs used in _convert: [wreg-fsr0h+status,2+status,0+btemp+1+pclath+cstack]
  2146                           ;convert@data stored from wreg
  2147  001E  1683               	bsf	3,5	;RP0=1, select bank1
  2148  001F  1303               	bcf	3,6	;RP1=0, select bank1
  2149  0020  00C7               	movwf	convert@data^(0+128)
  2150  0021                     l3288:
  2151                           
  2152                           ;LCD.c: 77: void convert(char *data,float a, int place);LCD.c: 78: {;LCD.c: 79:      int
      +                           temp=a;
  2153  0021  0840               	movf	(convert@a+3)^(0+128),w
  2154  0022  00F5               	movwf	___fltol@f1+3
  2155  0023  083F               	movf	(convert@a+2)^(0+128),w
  2156  0024  00F4               	movwf	___fltol@f1+2
  2157  0025  083E               	movf	(convert@a+1)^(0+128),w
  2158  0026  00F3               	movwf	___fltol@f1+1
  2159  0027  083D               	movf	convert@a^(0+128),w
  2160  0028  00F2               	movwf	___fltol@f1
  2161  0029  160A  118A  26E0  120A  118A  	fcall	___fltol
  2162  002E  0873               	movf	?___fltol+1,w
  2163  002F  1683               	bsf	3,5	;RP0=1, select bank1
  2164  0030  1303               	bcf	3,6	;RP1=0, select bank1
  2165  0031  00C4               	movwf	(convert@temp+1)^(0+128)
  2166  0032  0872               	movf	?___fltol,w
  2167  0033  00C3               	movwf	convert@temp^(0+128)
  2168  0034                     l3290:
  2169  0034                     l3292:
  2170                           
  2171                           ;LCD.c: 81:      int digits=0;
  2172  0034  01CE               	clrf	convert@digits^(0+128)
  2173  0035  01CF               	clrf	(convert@digits+1)^(0+128)
  2174  0036                     l3294:
  2175                           
  2176                           ;LCD.c: 82:      int i=0,mu=1;
  2177  0036  01CC               	clrf	convert@i^(0+128)
  2178  0037  01CD               	clrf	(convert@i+1)^(0+128)
  2179  0038                     l3296:
  2180  0038  3001               	movlw	1
  2181  0039  00D0               	movwf	convert@mu^(0+128)
  2182  003A  3000               	movlw	0
  2183  003B  00D1               	movwf	(convert@mu^(0+128)+1)
  2184  003C                     l3298:
  2185  003C                     l3300:
  2186                           
  2187                           ;LCD.c: 84:      if(a<0)
  2188  003C  0840               	movf	(convert@a+3)^(0+128),w
  2189  003D  00F5               	movwf	___flge@ff1+3
  2190  003E  083F               	movf	(convert@a+2)^(0+128),w
  2191  003F  00F4               	movwf	___flge@ff1+2
  2192  0040  083E               	movf	(convert@a+1)^(0+128),w
  2193  0041  00F3               	movwf	___flge@ff1+1
  2194  0042  083D               	movf	convert@a^(0+128),w
  2195  0043  00F2               	movwf	___flge@ff1
  2196  0044  3000               	movlw	0
  2197  0045  00F9               	movwf	___flge@ff2+3
  2198  0046  3000               	movlw	0
  2199  0047  00F8               	movwf	___flge@ff2+2
  2200  0048  3000               	movlw	0
  2201  0049  00F7               	movwf	___flge@ff2+1
  2202  004A  3000               	movlw	0
  2203  004B  00F6               	movwf	___flge@ff2
  2204  004C  160A  118A  275C  120A  118A  	fcall	___flge
  2205  0051  1803               	btfsc	3,0
  2206  0052  2854               	goto	u4371
  2207  0053  2855               	goto	u4370
  2208  0054                     u4371:
  2209  0054  28C3               	goto	l3312
  2210  0055                     u4370:
  2211  0055                     l3302:
  2212                           
  2213                           ;LCD.c: 85:      {;LCD.c: 86:             a=a*-1;
  2214  0055  30BF               	movlw	191
  2215  0056  1283               	bcf	3,5	;RP0=0, select bank0
  2216  0057  1303               	bcf	3,6	;RP1=0, select bank0
  2217  0058  00D4               	movwf	___flmul@b+3
  2218  0059  3080               	movlw	128
  2219  005A  00D3               	movwf	___flmul@b+2
  2220  005B  3000               	movlw	0
  2221  005C  00D2               	movwf	___flmul@b+1
  2222  005D  3000               	movlw	0
  2223  005E  00D1               	movwf	___flmul@b
  2224  005F  1683               	bsf	3,5	;RP0=1, select bank1
  2225  0060  1303               	bcf	3,6	;RP1=0, select bank1
  2226  0061  0840               	movf	(convert@a+3)^(0+128),w
  2227  0062  1283               	bcf	3,5	;RP0=0, select bank0
  2228  0063  1303               	bcf	3,6	;RP1=0, select bank0
  2229  0064  00D8               	movwf	___flmul@a+3
  2230  0065  1683               	bsf	3,5	;RP0=1, select bank1
  2231  0066  1303               	bcf	3,6	;RP1=0, select bank1
  2232  0067  083F               	movf	(convert@a+2)^(0+128),w
  2233  0068  1283               	bcf	3,5	;RP0=0, select bank0
  2234  0069  1303               	bcf	3,6	;RP1=0, select bank0
  2235  006A  00D7               	movwf	___flmul@a+2
  2236  006B  1683               	bsf	3,5	;RP0=1, select bank1
  2237  006C  1303               	bcf	3,6	;RP1=0, select bank1
  2238  006D  083E               	movf	(convert@a+1)^(0+128),w
  2239  006E  1283               	bcf	3,5	;RP0=0, select bank0
  2240  006F  1303               	bcf	3,6	;RP1=0, select bank0
  2241  0070  00D6               	movwf	___flmul@a+1
  2242  0071  1683               	bsf	3,5	;RP0=1, select bank1
  2243  0072  1303               	bcf	3,6	;RP1=0, select bank1
  2244  0073  083D               	movf	convert@a^(0+128),w
  2245  0074  1283               	bcf	3,5	;RP0=0, select bank0
  2246  0075  1303               	bcf	3,6	;RP1=0, select bank0
  2247  0076  00D5               	movwf	___flmul@a
  2248  0077  120A  118A  2480  120A  118A  	fcall	___flmul
  2249  007C  1283               	bcf	3,5	;RP0=0, select bank0
  2250  007D  1303               	bcf	3,6	;RP1=0, select bank0
  2251  007E  0854               	movf	?___flmul+3,w
  2252  007F  1683               	bsf	3,5	;RP0=1, select bank1
  2253  0080  1303               	bcf	3,6	;RP1=0, select bank1
  2254  0081  00C0               	movwf	(convert@a+3)^(0+128)
  2255  0082  1283               	bcf	3,5	;RP0=0, select bank0
  2256  0083  1303               	bcf	3,6	;RP1=0, select bank0
  2257  0084  0853               	movf	?___flmul+2,w
  2258  0085  1683               	bsf	3,5	;RP0=1, select bank1
  2259  0086  1303               	bcf	3,6	;RP1=0, select bank1
  2260  0087  00BF               	movwf	(convert@a+2)^(0+128)
  2261  0088  1283               	bcf	3,5	;RP0=0, select bank0
  2262  0089  1303               	bcf	3,6	;RP1=0, select bank0
  2263  008A  0852               	movf	?___flmul+1,w
  2264  008B  1683               	bsf	3,5	;RP0=1, select bank1
  2265  008C  1303               	bcf	3,6	;RP1=0, select bank1
  2266  008D  00BE               	movwf	(convert@a+1)^(0+128)
  2267  008E  1283               	bcf	3,5	;RP0=0, select bank0
  2268  008F  1303               	bcf	3,6	;RP1=0, select bank0
  2269  0090  0851               	movf	?___flmul,w
  2270  0091  1683               	bsf	3,5	;RP0=1, select bank1
  2271  0092  1303               	bcf	3,6	;RP1=0, select bank1
  2272  0093  00BD               	movwf	convert@a^(0+128)
  2273  0094                     l3304:
  2274                           
  2275                           ;LCD.c: 87:             data[i]='-';
  2276  0094  302D               	movlw	45
  2277  0095  1283               	bcf	3,5	;RP0=0, select bank0
  2278  0096  1303               	bcf	3,6	;RP1=0, select bank0
  2279  0097  00EB               	movwf	??_convert
  2280  0098  1683               	bsf	3,5	;RP0=1, select bank1
  2281  0099  1303               	bcf	3,6	;RP1=0, select bank1
  2282  009A  0847               	movf	convert@data^(0+128),w
  2283  009B  0084               	movwf	4
  2284  009C  1283               	bcf	3,5	;RP0=0, select bank0
  2285  009D  1303               	bcf	3,6	;RP1=0, select bank0
  2286  009E  086B               	movf	??_convert,w
  2287  009F  1383               	bcf	3,7	;select IRP bank0
  2288  00A0  0080               	movwf	0
  2289  00A1                     l3306:
  2290                           
  2291                           ;LCD.c: 88:             i++;
  2292  00A1  3001               	movlw	1
  2293  00A2  1683               	bsf	3,5	;RP0=1, select bank1
  2294  00A3  1303               	bcf	3,6	;RP1=0, select bank1
  2295  00A4  07CC               	addwf	convert@i^(0+128),f
  2296  00A5  1803               	skipnc
  2297  00A6  0ACD               	incf	(convert@i+1)^(0+128),f
  2298  00A7  3000               	movlw	0
  2299  00A8  07CD               	addwf	(convert@i+1)^(0+128),f
  2300  00A9  28C3               	goto	l3312
  2301  00AA                     l3308:
  2302                           
  2303                           ;LCD.c: 92:      {;LCD.c: 93:          temp=temp/10;
  2304  00AA  300A               	movlw	10
  2305  00AB  00F2               	movwf	___awdiv@divisor
  2306  00AC  3000               	movlw	0
  2307  00AD  00F3               	movwf	___awdiv@divisor+1
  2308  00AE  0844               	movf	(convert@temp+1)^(0+128),w
  2309  00AF  00F5               	movwf	___awdiv@dividend+1
  2310  00B0  0843               	movf	convert@temp^(0+128),w
  2311  00B1  00F4               	movwf	___awdiv@dividend
  2312  00B2  160A  118A  2608  120A  118A  	fcall	___awdiv
  2313  00B7  0873               	movf	?___awdiv+1,w
  2314  00B8  1683               	bsf	3,5	;RP0=1, select bank1
  2315  00B9  1303               	bcf	3,6	;RP1=0, select bank1
  2316  00BA  00C4               	movwf	(convert@temp+1)^(0+128)
  2317  00BB  0872               	movf	?___awdiv,w
  2318  00BC  00C3               	movwf	convert@temp^(0+128)
  2319  00BD                     l3310:
  2320                           
  2321                           ;LCD.c: 94:          digits++;
  2322  00BD  3001               	movlw	1
  2323  00BE  07CE               	addwf	convert@digits^(0+128),f
  2324  00BF  1803               	skipnc
  2325  00C0  0ACF               	incf	(convert@digits+1)^(0+128),f
  2326  00C1  3000               	movlw	0
  2327  00C2  07CF               	addwf	(convert@digits+1)^(0+128),f
  2328  00C3                     l3312:
  2329                           
  2330                           ;LCD.c: 91:      while(temp!=0)
  2331  00C3  1683               	bsf	3,5	;RP0=1, select bank1
  2332  00C4  1303               	bcf	3,6	;RP1=0, select bank1
  2333  00C5  0843               	movf	convert@temp^(0+128),w
  2334  00C6  0444               	iorwf	(convert@temp+1)^(0+128),w
  2335  00C7  1D03               	btfss	3,2
  2336  00C8  28CA               	goto	u4381
  2337  00C9  28CB               	goto	u4380
  2338  00CA                     u4381:
  2339  00CA  28AA               	goto	l3308
  2340  00CB                     u4380:
  2341  00CB  2A13               	goto	l3336
  2342  00CC                     l3314:
  2343                           
  2344                           ;LCD.c: 97:      {;LCD.c: 98:          if(digits==1)mu=1;
  2345  00CC  034E               	decf	convert@digits^(0+128),w
  2346  00CD  044F               	iorwf	(convert@digits+1)^(0+128),w
  2347  00CE  1D03               	btfss	3,2
  2348  00CF  28D1               	goto	u4391
  2349  00D0  28D2               	goto	u4390
  2350  00D1                     u4391:
  2351  00D1  28D7               	goto	l3318
  2352  00D2                     u4390:
  2353  00D2                     l3316:
  2354  00D2  3001               	movlw	1
  2355  00D3  00D0               	movwf	convert@mu^(0+128)
  2356  00D4  3000               	movlw	0
  2357  00D5  00D1               	movwf	(convert@mu^(0+128)+1)
  2358  00D6  2919               	goto	l3326
  2359  00D7                     l3318:
  2360  00D7  3002               	movlw	2
  2361  00D8  00C5               	movwf	convert@j^(0+128)
  2362  00D9  3000               	movlw	0
  2363  00DA  00C6               	movwf	(convert@j^(0+128)+1)
  2364  00DB  2903               	goto	l3324
  2365  00DC                     l3320:
  2366  00DC  1683               	bsf	3,5	;RP0=1, select bank1
  2367  00DD  1303               	bcf	3,6	;RP1=0, select bank1
  2368  00DE  0851               	movf	(convert@mu+1)^(0+128),w
  2369  00DF  1283               	bcf	3,5	;RP0=0, select bank0
  2370  00E0  1303               	bcf	3,6	;RP1=0, select bank0
  2371  00E1  00A6               	movwf	___wmul@multiplier+1
  2372  00E2  1683               	bsf	3,5	;RP0=1, select bank1
  2373  00E3  1303               	bcf	3,6	;RP1=0, select bank1
  2374  00E4  0850               	movf	convert@mu^(0+128),w
  2375  00E5  1283               	bcf	3,5	;RP0=0, select bank0
  2376  00E6  1303               	bcf	3,6	;RP1=0, select bank0
  2377  00E7  00A5               	movwf	___wmul@multiplier
  2378  00E8  300A               	movlw	10
  2379  00E9  00A7               	movwf	___wmul@multiplicand
  2380  00EA  3000               	movlw	0
  2381  00EB  00A8               	movwf	___wmul@multiplicand+1
  2382  00EC  160A  118A  24F4  120A  118A  	fcall	___wmul
  2383  00F1  1283               	bcf	3,5	;RP0=0, select bank0
  2384  00F2  1303               	bcf	3,6	;RP1=0, select bank0
  2385  00F3  0826               	movf	?___wmul+1,w
  2386  00F4  1683               	bsf	3,5	;RP0=1, select bank1
  2387  00F5  1303               	bcf	3,6	;RP1=0, select bank1
  2388  00F6  00D1               	movwf	(convert@mu+1)^(0+128)
  2389  00F7  1283               	bcf	3,5	;RP0=0, select bank0
  2390  00F8  1303               	bcf	3,6	;RP1=0, select bank0
  2391  00F9  0825               	movf	?___wmul,w
  2392  00FA  1683               	bsf	3,5	;RP0=1, select bank1
  2393  00FB  1303               	bcf	3,6	;RP1=0, select bank1
  2394  00FC  00D0               	movwf	convert@mu^(0+128)
  2395  00FD                     l3322:
  2396  00FD  3001               	movlw	1
  2397  00FE  07C5               	addwf	convert@j^(0+128),f
  2398  00FF  1803               	skipnc
  2399  0100  0AC6               	incf	(convert@j+1)^(0+128),f
  2400  0101  3000               	movlw	0
  2401  0102  07C6               	addwf	(convert@j+1)^(0+128),f
  2402  0103                     l3324:
  2403  0103  084F               	movf	(convert@digits+1)^(0+128),w
  2404  0104  3A80               	xorlw	128
  2405  0105  1283               	bcf	3,5	;RP0=0, select bank0
  2406  0106  1303               	bcf	3,6	;RP1=0, select bank0
  2407  0107  00EB               	movwf	??_convert
  2408  0108  1683               	bsf	3,5	;RP0=1, select bank1
  2409  0109  1303               	bcf	3,6	;RP1=0, select bank1
  2410  010A  0846               	movf	(convert@j+1)^(0+128),w
  2411  010B  3A80               	xorlw	128
  2412  010C  1283               	bcf	3,5	;RP0=0, select bank0
  2413  010D  1303               	bcf	3,6	;RP1=0, select bank0
  2414  010E  026B               	subwf	??_convert,w
  2415  010F  1D03               	skipz
  2416  0110  2915               	goto	u4405
  2417  0111  1683               	bsf	3,5	;RP0=1, select bank1
  2418  0112  1303               	bcf	3,6	;RP1=0, select bank1
  2419  0113  0845               	movf	convert@j^(0+128),w
  2420  0114  024E               	subwf	convert@digits^(0+128),w
  2421  0115                     u4405:
  2422  0115  1803               	skipnc
  2423  0116  2918               	goto	u4401
  2424  0117  2919               	goto	u4400
  2425  0118                     u4401:
  2426  0118  28DC               	goto	l3320
  2427  0119                     u4400:
  2428  0119                     l3326:
  2429                           
  2430                           ;LCD.c: 101:          x=a/mu;
  2431  0119  1683               	bsf	3,5	;RP0=1, select bank1
  2432  011A  1303               	bcf	3,6	;RP1=0, select bank1
  2433  011B  0850               	movf	convert@mu^(0+128),w
  2434  011C  1283               	bcf	3,5	;RP0=0, select bank0
  2435  011D  1303               	bcf	3,6	;RP1=0, select bank0
  2436  011E  00A9               	movwf	___xxtofl@val
  2437  011F  1683               	bsf	3,5	;RP0=1, select bank1
  2438  0120  1303               	bcf	3,6	;RP1=0, select bank1
  2439  0121  0851               	movf	(convert@mu+1)^(0+128),w
  2440  0122  1283               	bcf	3,5	;RP0=0, select bank0
  2441  0123  1303               	bcf	3,6	;RP1=0, select bank0
  2442  0124  00AA               	movwf	___xxtofl@val+1
  2443  0125  3000               	movlw	0
  2444  0126  1BAA               	btfsc	___xxtofl@val+1,7
  2445  0127  30FF               	movlw	255
  2446  0128  00AB               	movwf	___xxtofl@val+2
  2447  0129  00AC               	movwf	___xxtofl@val+3
  2448  012A  3001               	movlw	1
  2449  012B  120A  158A  20F1  120A  118A  	fcall	___xxtofl
  2450  0130  1283               	bcf	3,5	;RP0=0, select bank0
  2451  0131  1303               	bcf	3,6	;RP1=0, select bank0
  2452  0132  082C               	movf	?___xxtofl+3,w
  2453  0133  00BA               	movwf	___fldiv@a+3
  2454  0134  082B               	movf	?___xxtofl+2,w
  2455  0135  00B9               	movwf	___fldiv@a+2
  2456  0136  082A               	movf	?___xxtofl+1,w
  2457  0137  00B8               	movwf	___fldiv@a+1
  2458  0138  0829               	movf	?___xxtofl,w
  2459  0139  00B7               	movwf	___fldiv@a
  2460  013A  1683               	bsf	3,5	;RP0=1, select bank1
  2461  013B  1303               	bcf	3,6	;RP1=0, select bank1
  2462  013C  0840               	movf	(convert@a+3)^(0+128),w
  2463  013D  1283               	bcf	3,5	;RP0=0, select bank0
  2464  013E  1303               	bcf	3,6	;RP1=0, select bank0
  2465  013F  00BE               	movwf	___fldiv@b+3
  2466  0140  1683               	bsf	3,5	;RP0=1, select bank1
  2467  0141  1303               	bcf	3,6	;RP1=0, select bank1
  2468  0142  083F               	movf	(convert@a+2)^(0+128),w
  2469  0143  1283               	bcf	3,5	;RP0=0, select bank0
  2470  0144  1303               	bcf	3,6	;RP1=0, select bank0
  2471  0145  00BD               	movwf	___fldiv@b+2
  2472  0146  1683               	bsf	3,5	;RP0=1, select bank1
  2473  0147  1303               	bcf	3,6	;RP1=0, select bank1
  2474  0148  083E               	movf	(convert@a+1)^(0+128),w
  2475  0149  1283               	bcf	3,5	;RP0=0, select bank0
  2476  014A  1303               	bcf	3,6	;RP1=0, select bank0
  2477  014B  00BC               	movwf	___fldiv@b+1
  2478  014C  1683               	bsf	3,5	;RP0=1, select bank1
  2479  014D  1303               	bcf	3,6	;RP1=0, select bank1
  2480  014E  083D               	movf	convert@a^(0+128),w
  2481  014F  1283               	bcf	3,5	;RP0=0, select bank0
  2482  0150  1303               	bcf	3,6	;RP1=0, select bank0
  2483  0151  00BB               	movwf	___fldiv@b
  2484  0152  120A  158A  21AD  120A  118A  	fcall	___fldiv
  2485  0157  1283               	bcf	3,5	;RP0=0, select bank0
  2486  0158  1303               	bcf	3,6	;RP1=0, select bank0
  2487  0159  083A               	movf	?___fldiv+3,w
  2488  015A  1683               	bsf	3,5	;RP0=1, select bank1
  2489  015B  1303               	bcf	3,6	;RP1=0, select bank1
  2490  015C  00CB               	movwf	(convert@x+3)^(0+128)
  2491  015D  1283               	bcf	3,5	;RP0=0, select bank0
  2492  015E  1303               	bcf	3,6	;RP1=0, select bank0
  2493  015F  0839               	movf	?___fldiv+2,w
  2494  0160  1683               	bsf	3,5	;RP0=1, select bank1
  2495  0161  1303               	bcf	3,6	;RP1=0, select bank1
  2496  0162  00CA               	movwf	(convert@x+2)^(0+128)
  2497  0163  1283               	bcf	3,5	;RP0=0, select bank0
  2498  0164  1303               	bcf	3,6	;RP1=0, select bank0
  2499  0165  0838               	movf	?___fldiv+1,w
  2500  0166  1683               	bsf	3,5	;RP0=1, select bank1
  2501  0167  1303               	bcf	3,6	;RP1=0, select bank1
  2502  0168  00C9               	movwf	(convert@x+1)^(0+128)
  2503  0169  1283               	bcf	3,5	;RP0=0, select bank0
  2504  016A  1303               	bcf	3,6	;RP1=0, select bank0
  2505  016B  0837               	movf	?___fldiv,w
  2506  016C  1683               	bsf	3,5	;RP0=1, select bank1
  2507  016D  1303               	bcf	3,6	;RP1=0, select bank1
  2508  016E  00C8               	movwf	convert@x^(0+128)
  2509                           
  2510                           ;LCD.c: 102:          a=a-((int)x*mu);
  2511  016F  0851               	movf	(convert@mu+1)^(0+128),w
  2512  0170  1283               	bcf	3,5	;RP0=0, select bank0
  2513  0171  1303               	bcf	3,6	;RP1=0, select bank0
  2514  0172  00A8               	movwf	___wmul@multiplicand+1
  2515  0173  1683               	bsf	3,5	;RP0=1, select bank1
  2516  0174  1303               	bcf	3,6	;RP1=0, select bank1
  2517  0175  0850               	movf	convert@mu^(0+128),w
  2518  0176  1283               	bcf	3,5	;RP0=0, select bank0
  2519  0177  1303               	bcf	3,6	;RP1=0, select bank0
  2520  0178  00A7               	movwf	___wmul@multiplicand
  2521  0179  1683               	bsf	3,5	;RP0=1, select bank1
  2522  017A  1303               	bcf	3,6	;RP1=0, select bank1
  2523  017B  084B               	movf	(convert@x+3)^(0+128),w
  2524  017C  00F5               	movwf	___fltol@f1+3
  2525  017D  084A               	movf	(convert@x+2)^(0+128),w
  2526  017E  00F4               	movwf	___fltol@f1+2
  2527  017F  0849               	movf	(convert@x+1)^(0+128),w
  2528  0180  00F3               	movwf	___fltol@f1+1
  2529  0181  0848               	movf	convert@x^(0+128),w
  2530  0182  00F2               	movwf	___fltol@f1
  2531  0183  160A  118A  26E0  120A  118A  	fcall	___fltol
  2532  0188  0873               	movf	?___fltol+1,w
  2533  0189  1283               	bcf	3,5	;RP0=0, select bank0
  2534  018A  1303               	bcf	3,6	;RP1=0, select bank0
  2535  018B  00A6               	movwf	___wmul@multiplier+1
  2536  018C  0872               	movf	?___fltol,w
  2537  018D  00A5               	movwf	___wmul@multiplier
  2538  018E  160A  118A  24F4  120A  118A  	fcall	___wmul
  2539  0193  1283               	bcf	3,5	;RP0=0, select bank0
  2540  0194  1303               	bcf	3,6	;RP1=0, select bank0
  2541  0195  0825               	movf	?___wmul,w
  2542  0196  00A9               	movwf	___xxtofl@val
  2543  0197  0826               	movf	?___wmul+1,w
  2544  0198  00AA               	movwf	___xxtofl@val+1
  2545  0199  3000               	movlw	0
  2546  019A  1BAA               	btfsc	___xxtofl@val+1,7
  2547  019B  30FF               	movlw	255
  2548  019C  00AB               	movwf	___xxtofl@val+2
  2549  019D  00AC               	movwf	___xxtofl@val+3
  2550  019E  3001               	movlw	1
  2551  019F  120A  158A  20F1  120A  118A  	fcall	___xxtofl
  2552  01A4  1283               	bcf	3,5	;RP0=0, select bank0
  2553  01A5  1303               	bcf	3,6	;RP1=0, select bank0
  2554  01A6  082C               	movf	?___xxtofl+3,w
  2555  01A7  00BA               	movwf	___flsub@a+3
  2556  01A8  082B               	movf	?___xxtofl+2,w
  2557  01A9  00B9               	movwf	___flsub@a+2
  2558  01AA  082A               	movf	?___xxtofl+1,w
  2559  01AB  00B8               	movwf	___flsub@a+1
  2560  01AC  0829               	movf	?___xxtofl,w
  2561  01AD  00B7               	movwf	___flsub@a
  2562  01AE  1683               	bsf	3,5	;RP0=1, select bank1
  2563  01AF  1303               	bcf	3,6	;RP1=0, select bank1
  2564  01B0  0840               	movf	(convert@a+3)^(0+128),w
  2565  01B1  1283               	bcf	3,5	;RP0=0, select bank0
  2566  01B2  1303               	bcf	3,6	;RP1=0, select bank0
  2567  01B3  00BE               	movwf	___flsub@b+3
  2568  01B4  1683               	bsf	3,5	;RP0=1, select bank1
  2569  01B5  1303               	bcf	3,6	;RP1=0, select bank1
  2570  01B6  083F               	movf	(convert@a+2)^(0+128),w
  2571  01B7  1283               	bcf	3,5	;RP0=0, select bank0
  2572  01B8  1303               	bcf	3,6	;RP1=0, select bank0
  2573  01B9  00BD               	movwf	___flsub@b+2
  2574  01BA  1683               	bsf	3,5	;RP0=1, select bank1
  2575  01BB  1303               	bcf	3,6	;RP1=0, select bank1
  2576  01BC  083E               	movf	(convert@a+1)^(0+128),w
  2577  01BD  1283               	bcf	3,5	;RP0=0, select bank0
  2578  01BE  1303               	bcf	3,6	;RP1=0, select bank0
  2579  01BF  00BC               	movwf	___flsub@b+1
  2580  01C0  1683               	bsf	3,5	;RP0=1, select bank1
  2581  01C1  1303               	bcf	3,6	;RP1=0, select bank1
  2582  01C2  083D               	movf	convert@a^(0+128),w
  2583  01C3  1283               	bcf	3,5	;RP0=0, select bank0
  2584  01C4  1303               	bcf	3,6	;RP1=0, select bank0
  2585  01C5  00BB               	movwf	___flsub@b
  2586  01C6  160A  118A  24D0  120A  118A  	fcall	___flsub
  2587  01CB  1283               	bcf	3,5	;RP0=0, select bank0
  2588  01CC  1303               	bcf	3,6	;RP1=0, select bank0
  2589  01CD  083A               	movf	?___flsub+3,w
  2590  01CE  1683               	bsf	3,5	;RP0=1, select bank1
  2591  01CF  1303               	bcf	3,6	;RP1=0, select bank1
  2592  01D0  00C0               	movwf	(convert@a+3)^(0+128)
  2593  01D1  1283               	bcf	3,5	;RP0=0, select bank0
  2594  01D2  1303               	bcf	3,6	;RP1=0, select bank0
  2595  01D3  0839               	movf	?___flsub+2,w
  2596  01D4  1683               	bsf	3,5	;RP0=1, select bank1
  2597  01D5  1303               	bcf	3,6	;RP1=0, select bank1
  2598  01D6  00BF               	movwf	(convert@a+2)^(0+128)
  2599  01D7  1283               	bcf	3,5	;RP0=0, select bank0
  2600  01D8  1303               	bcf	3,6	;RP1=0, select bank0
  2601  01D9  0838               	movf	?___flsub+1,w
  2602  01DA  1683               	bsf	3,5	;RP0=1, select bank1
  2603  01DB  1303               	bcf	3,6	;RP1=0, select bank1
  2604  01DC  00BE               	movwf	(convert@a+1)^(0+128)
  2605  01DD  1283               	bcf	3,5	;RP0=0, select bank0
  2606  01DE  1303               	bcf	3,6	;RP1=0, select bank0
  2607  01DF  0837               	movf	?___flsub,w
  2608  01E0  1683               	bsf	3,5	;RP0=1, select bank1
  2609  01E1  1303               	bcf	3,6	;RP1=0, select bank1
  2610  01E2  00BD               	movwf	convert@a^(0+128)
  2611  01E3                     l3328:
  2612                           
  2613                           ;LCD.c: 103:          data[i]=0x30+((int)x);
  2614  01E3  084B               	movf	(convert@x+3)^(0+128),w
  2615  01E4  00F5               	movwf	___fltol@f1+3
  2616  01E5  084A               	movf	(convert@x+2)^(0+128),w
  2617  01E6  00F4               	movwf	___fltol@f1+2
  2618  01E7  0849               	movf	(convert@x+1)^(0+128),w
  2619  01E8  00F3               	movwf	___fltol@f1+1
  2620  01E9  0848               	movf	convert@x^(0+128),w
  2621  01EA  00F2               	movwf	___fltol@f1
  2622  01EB  160A  118A  26E0  120A  118A  	fcall	___fltol
  2623  01F0  0872               	movf	?___fltol,w
  2624  01F1  3E30               	addlw	48
  2625  01F2  1283               	bcf	3,5	;RP0=0, select bank0
  2626  01F3  1303               	bcf	3,6	;RP1=0, select bank0
  2627  01F4  00EB               	movwf	??_convert
  2628  01F5  1683               	bsf	3,5	;RP0=1, select bank1
  2629  01F6  1303               	bcf	3,6	;RP1=0, select bank1
  2630  01F7  084C               	movf	convert@i^(0+128),w
  2631  01F8  0747               	addwf	convert@data^(0+128),w
  2632  01F9  1283               	bcf	3,5	;RP0=0, select bank0
  2633  01FA  1303               	bcf	3,6	;RP1=0, select bank0
  2634  01FB  00EC               	movwf	??_convert+1
  2635  01FC  086C               	movf	??_convert+1,w
  2636  01FD  0084               	movwf	4
  2637  01FE  086B               	movf	??_convert,w
  2638  01FF  1383               	bcf	3,7	;select IRP bank0
  2639  0200  0080               	movwf	0
  2640  0201                     l3330:
  2641                           
  2642                           ;LCD.c: 104:          i++;
  2643  0201  3001               	movlw	1
  2644  0202  1683               	bsf	3,5	;RP0=1, select bank1
  2645  0203  1303               	bcf	3,6	;RP1=0, select bank1
  2646  0204  07CC               	addwf	convert@i^(0+128),f
  2647  0205  1803               	skipnc
  2648  0206  0ACD               	incf	(convert@i+1)^(0+128),f
  2649  0207  3000               	movlw	0
  2650  0208  07CD               	addwf	(convert@i+1)^(0+128),f
  2651  0209                     l3332:
  2652                           
  2653                           ;LCD.c: 105:          digits--;
  2654  0209  30FF               	movlw	255
  2655  020A  07CE               	addwf	convert@digits^(0+128),f
  2656  020B  1803               	skipnc
  2657  020C  0ACF               	incf	(convert@digits+1)^(0+128),f
  2658  020D  30FF               	movlw	255
  2659  020E  07CF               	addwf	(convert@digits+1)^(0+128),f
  2660  020F                     l3334:
  2661                           
  2662                           ;LCD.c: 106:          mu=1;
  2663  020F  3001               	movlw	1
  2664  0210  00D0               	movwf	convert@mu^(0+128)
  2665  0211  3000               	movlw	0
  2666  0212  00D1               	movwf	(convert@mu^(0+128)+1)
  2667  0213                     l3336:
  2668                           
  2669                           ;LCD.c: 96:      while(digits!=0)
  2670  0213  084E               	movf	convert@digits^(0+128),w
  2671  0214  044F               	iorwf	(convert@digits+1)^(0+128),w
  2672  0215  1D03               	btfss	3,2
  2673  0216  2A18               	goto	u4411
  2674  0217  2A19               	goto	u4410
  2675  0218                     u4411:
  2676  0218  28CC               	goto	l3314
  2677  0219                     u4410:
  2678  0219                     l3338:
  2679                           
  2680                           ;LCD.c: 109:      data[i]='.';
  2681  0219  302E               	movlw	46
  2682  021A  1283               	bcf	3,5	;RP0=0, select bank0
  2683  021B  1303               	bcf	3,6	;RP1=0, select bank0
  2684  021C  00EB               	movwf	??_convert
  2685  021D  1683               	bsf	3,5	;RP0=1, select bank1
  2686  021E  1303               	bcf	3,6	;RP1=0, select bank1
  2687  021F  084C               	movf	convert@i^(0+128),w
  2688  0220  0747               	addwf	convert@data^(0+128),w
  2689  0221  1283               	bcf	3,5	;RP0=0, select bank0
  2690  0222  1303               	bcf	3,6	;RP1=0, select bank0
  2691  0223  00EC               	movwf	??_convert+1
  2692  0224  086C               	movf	??_convert+1,w
  2693  0225  0084               	movwf	4
  2694  0226  086B               	movf	??_convert,w
  2695  0227  1383               	bcf	3,7	;select IRP bank0
  2696  0228  0080               	movwf	0
  2697  0229                     l3340:
  2698                           
  2699                           ;LCD.c: 110:      i++;
  2700  0229  3001               	movlw	1
  2701  022A  1683               	bsf	3,5	;RP0=1, select bank1
  2702  022B  1303               	bcf	3,6	;RP1=0, select bank1
  2703  022C  07CC               	addwf	convert@i^(0+128),f
  2704  022D  1803               	skipnc
  2705  022E  0ACD               	incf	(convert@i+1)^(0+128),f
  2706  022F  3000               	movlw	0
  2707  0230  07CD               	addwf	(convert@i+1)^(0+128),f
  2708  0231                     l3342:
  2709  0231                     l3344:
  2710                           
  2711                           ;LCD.c: 112:      for(j=1;j<=place;j++)mu=mu*10;
  2712  0231  3001               	movlw	1
  2713  0232  00C5               	movwf	convert@j^(0+128)
  2714  0233  3000               	movlw	0
  2715  0234  00C6               	movwf	(convert@j^(0+128)+1)
  2716  0235  2A5D               	goto	l3350
  2717  0236                     l3346:
  2718  0236  1683               	bsf	3,5	;RP0=1, select bank1
  2719  0237  1303               	bcf	3,6	;RP1=0, select bank1
  2720  0238  0851               	movf	(convert@mu+1)^(0+128),w
  2721  0239  1283               	bcf	3,5	;RP0=0, select bank0
  2722  023A  1303               	bcf	3,6	;RP1=0, select bank0
  2723  023B  00A6               	movwf	___wmul@multiplier+1
  2724  023C  1683               	bsf	3,5	;RP0=1, select bank1
  2725  023D  1303               	bcf	3,6	;RP1=0, select bank1
  2726  023E  0850               	movf	convert@mu^(0+128),w
  2727  023F  1283               	bcf	3,5	;RP0=0, select bank0
  2728  0240  1303               	bcf	3,6	;RP1=0, select bank0
  2729  0241  00A5               	movwf	___wmul@multiplier
  2730  0242  300A               	movlw	10
  2731  0243  00A7               	movwf	___wmul@multiplicand
  2732  0244  3000               	movlw	0
  2733  0245  00A8               	movwf	___wmul@multiplicand+1
  2734  0246  160A  118A  24F4  120A  118A  	fcall	___wmul
  2735  024B  1283               	bcf	3,5	;RP0=0, select bank0
  2736  024C  1303               	bcf	3,6	;RP1=0, select bank0
  2737  024D  0826               	movf	?___wmul+1,w
  2738  024E  1683               	bsf	3,5	;RP0=1, select bank1
  2739  024F  1303               	bcf	3,6	;RP1=0, select bank1
  2740  0250  00D1               	movwf	(convert@mu+1)^(0+128)
  2741  0251  1283               	bcf	3,5	;RP0=0, select bank0
  2742  0252  1303               	bcf	3,6	;RP1=0, select bank0
  2743  0253  0825               	movf	?___wmul,w
  2744  0254  1683               	bsf	3,5	;RP0=1, select bank1
  2745  0255  1303               	bcf	3,6	;RP1=0, select bank1
  2746  0256  00D0               	movwf	convert@mu^(0+128)
  2747  0257                     l3348:
  2748  0257  3001               	movlw	1
  2749  0258  07C5               	addwf	convert@j^(0+128),f
  2750  0259  1803               	skipnc
  2751  025A  0AC6               	incf	(convert@j+1)^(0+128),f
  2752  025B  3000               	movlw	0
  2753  025C  07C6               	addwf	(convert@j+1)^(0+128),f
  2754  025D                     l3350:
  2755  025D  0842               	movf	(convert@place+1)^(0+128),w
  2756  025E  3A80               	xorlw	128
  2757  025F  1283               	bcf	3,5	;RP0=0, select bank0
  2758  0260  1303               	bcf	3,6	;RP1=0, select bank0
  2759  0261  00EB               	movwf	??_convert
  2760  0262  1683               	bsf	3,5	;RP0=1, select bank1
  2761  0263  1303               	bcf	3,6	;RP1=0, select bank1
  2762  0264  0846               	movf	(convert@j+1)^(0+128),w
  2763  0265  3A80               	xorlw	128
  2764  0266  1283               	bcf	3,5	;RP0=0, select bank0
  2765  0267  1303               	bcf	3,6	;RP1=0, select bank0
  2766  0268  026B               	subwf	??_convert,w
  2767  0269  1D03               	skipz
  2768  026A  2A6F               	goto	u4425
  2769  026B  1683               	bsf	3,5	;RP0=1, select bank1
  2770  026C  1303               	bcf	3,6	;RP1=0, select bank1
  2771  026D  0845               	movf	convert@j^(0+128),w
  2772  026E  0241               	subwf	convert@place^(0+128),w
  2773  026F                     u4425:
  2774  026F  1803               	skipnc
  2775  0270  2A72               	goto	u4421
  2776  0271  2A73               	goto	u4420
  2777  0272                     u4421:
  2778  0272  2A36               	goto	l3346
  2779  0273                     u4420:
  2780  0273                     l3352:
  2781                           
  2782                           ;LCD.c: 113:      x=(a-(int)a)*mu;
  2783  0273  1683               	bsf	3,5	;RP0=1, select bank1
  2784  0274  1303               	bcf	3,6	;RP1=0, select bank1
  2785  0275  0850               	movf	convert@mu^(0+128),w
  2786  0276  1283               	bcf	3,5	;RP0=0, select bank0
  2787  0277  1303               	bcf	3,6	;RP1=0, select bank0
  2788  0278  00A9               	movwf	___xxtofl@val
  2789  0279  1683               	bsf	3,5	;RP0=1, select bank1
  2790  027A  1303               	bcf	3,6	;RP1=0, select bank1
  2791  027B  0851               	movf	(convert@mu+1)^(0+128),w
  2792  027C  1283               	bcf	3,5	;RP0=0, select bank0
  2793  027D  1303               	bcf	3,6	;RP1=0, select bank0
  2794  027E  00AA               	movwf	___xxtofl@val+1
  2795  027F  3000               	movlw	0
  2796  0280  1BAA               	btfsc	___xxtofl@val+1,7
  2797  0281  30FF               	movlw	255
  2798  0282  00AB               	movwf	___xxtofl@val+2
  2799  0283  00AC               	movwf	___xxtofl@val+3
  2800  0284  3001               	movlw	1
  2801  0285  120A  158A  20F1  120A  118A  	fcall	___xxtofl
  2802  028A  1283               	bcf	3,5	;RP0=0, select bank0
  2803  028B  1303               	bcf	3,6	;RP1=0, select bank0
  2804  028C  082C               	movf	?___xxtofl+3,w
  2805  028D  00D4               	movwf	___flmul@b+3
  2806  028E  082B               	movf	?___xxtofl+2,w
  2807  028F  00D3               	movwf	___flmul@b+2
  2808  0290  082A               	movf	?___xxtofl+1,w
  2809  0291  00D2               	movwf	___flmul@b+1
  2810  0292  0829               	movf	?___xxtofl,w
  2811  0293  00D1               	movwf	___flmul@b
  2812  0294  1683               	bsf	3,5	;RP0=1, select bank1
  2813  0295  1303               	bcf	3,6	;RP1=0, select bank1
  2814  0296  0840               	movf	(convert@a+3)^(0+128),w
  2815  0297  00F5               	movwf	___fltol@f1+3
  2816  0298  083F               	movf	(convert@a+2)^(0+128),w
  2817  0299  00F4               	movwf	___fltol@f1+2
  2818  029A  083E               	movf	(convert@a+1)^(0+128),w
  2819  029B  00F3               	movwf	___fltol@f1+1
  2820  029C  083D               	movf	convert@a^(0+128),w
  2821  029D  00F2               	movwf	___fltol@f1
  2822  029E  160A  118A  26E0  120A  118A  	fcall	___fltol
  2823  02A3  0872               	movf	?___fltol,w
  2824  02A4  1283               	bcf	3,5	;RP0=0, select bank0
  2825  02A5  1303               	bcf	3,6	;RP1=0, select bank0
  2826  02A6  00A9               	movwf	___xxtofl@val
  2827  02A7  0873               	movf	?___fltol+1,w
  2828  02A8  00AA               	movwf	___xxtofl@val+1
  2829  02A9  3000               	movlw	0
  2830  02AA  1BAA               	btfsc	___xxtofl@val+1,7
  2831  02AB  30FF               	movlw	255
  2832  02AC  00AB               	movwf	___xxtofl@val+2
  2833  02AD  00AC               	movwf	___xxtofl@val+3
  2834  02AE  3001               	movlw	1
  2835  02AF  120A  158A  20F1  120A  118A  	fcall	___xxtofl
  2836  02B4  1283               	bcf	3,5	;RP0=0, select bank0
  2837  02B5  1303               	bcf	3,6	;RP1=0, select bank0
  2838  02B6  082C               	movf	?___xxtofl+3,w
  2839  02B7  00BA               	movwf	___flsub@a+3
  2840  02B8  082B               	movf	?___xxtofl+2,w
  2841  02B9  00B9               	movwf	___flsub@a+2
  2842  02BA  082A               	movf	?___xxtofl+1,w
  2843  02BB  00B8               	movwf	___flsub@a+1
  2844  02BC  0829               	movf	?___xxtofl,w
  2845  02BD  00B7               	movwf	___flsub@a
  2846  02BE  1683               	bsf	3,5	;RP0=1, select bank1
  2847  02BF  1303               	bcf	3,6	;RP1=0, select bank1
  2848  02C0  0840               	movf	(convert@a+3)^(0+128),w
  2849  02C1  1283               	bcf	3,5	;RP0=0, select bank0
  2850  02C2  1303               	bcf	3,6	;RP1=0, select bank0
  2851  02C3  00BE               	movwf	___flsub@b+3
  2852  02C4  1683               	bsf	3,5	;RP0=1, select bank1
  2853  02C5  1303               	bcf	3,6	;RP1=0, select bank1
  2854  02C6  083F               	movf	(convert@a+2)^(0+128),w
  2855  02C7  1283               	bcf	3,5	;RP0=0, select bank0
  2856  02C8  1303               	bcf	3,6	;RP1=0, select bank0
  2857  02C9  00BD               	movwf	___flsub@b+2
  2858  02CA  1683               	bsf	3,5	;RP0=1, select bank1
  2859  02CB  1303               	bcf	3,6	;RP1=0, select bank1
  2860  02CC  083E               	movf	(convert@a+1)^(0+128),w
  2861  02CD  1283               	bcf	3,5	;RP0=0, select bank0
  2862  02CE  1303               	bcf	3,6	;RP1=0, select bank0
  2863  02CF  00BC               	movwf	___flsub@b+1
  2864  02D0  1683               	bsf	3,5	;RP0=1, select bank1
  2865  02D1  1303               	bcf	3,6	;RP1=0, select bank1
  2866  02D2  083D               	movf	convert@a^(0+128),w
  2867  02D3  1283               	bcf	3,5	;RP0=0, select bank0
  2868  02D4  1303               	bcf	3,6	;RP1=0, select bank0
  2869  02D5  00BB               	movwf	___flsub@b
  2870  02D6  160A  118A  24D0  120A  118A  	fcall	___flsub
  2871  02DB  1283               	bcf	3,5	;RP0=0, select bank0
  2872  02DC  1303               	bcf	3,6	;RP1=0, select bank0
  2873  02DD  083A               	movf	?___flsub+3,w
  2874  02DE  00D8               	movwf	___flmul@a+3
  2875  02DF  0839               	movf	?___flsub+2,w
  2876  02E0  00D7               	movwf	___flmul@a+2
  2877  02E1  0838               	movf	?___flsub+1,w
  2878  02E2  00D6               	movwf	___flmul@a+1
  2879  02E3  0837               	movf	?___flsub,w
  2880  02E4  00D5               	movwf	___flmul@a
  2881  02E5  120A  118A  2480  120A  118A  	fcall	___flmul
  2882  02EA  1283               	bcf	3,5	;RP0=0, select bank0
  2883  02EB  1303               	bcf	3,6	;RP1=0, select bank0
  2884  02EC  0854               	movf	?___flmul+3,w
  2885  02ED  1683               	bsf	3,5	;RP0=1, select bank1
  2886  02EE  1303               	bcf	3,6	;RP1=0, select bank1
  2887  02EF  00CB               	movwf	(convert@x+3)^(0+128)
  2888  02F0  1283               	bcf	3,5	;RP0=0, select bank0
  2889  02F1  1303               	bcf	3,6	;RP1=0, select bank0
  2890  02F2  0853               	movf	?___flmul+2,w
  2891  02F3  1683               	bsf	3,5	;RP0=1, select bank1
  2892  02F4  1303               	bcf	3,6	;RP1=0, select bank1
  2893  02F5  00CA               	movwf	(convert@x+2)^(0+128)
  2894  02F6  1283               	bcf	3,5	;RP0=0, select bank0
  2895  02F7  1303               	bcf	3,6	;RP1=0, select bank0
  2896  02F8  0852               	movf	?___flmul+1,w
  2897  02F9  1683               	bsf	3,5	;RP0=1, select bank1
  2898  02FA  1303               	bcf	3,6	;RP1=0, select bank1
  2899  02FB  00C9               	movwf	(convert@x+1)^(0+128)
  2900  02FC  1283               	bcf	3,5	;RP0=0, select bank0
  2901  02FD  1303               	bcf	3,6	;RP1=0, select bank0
  2902  02FE  0851               	movf	?___flmul,w
  2903  02FF  1683               	bsf	3,5	;RP0=1, select bank1
  2904  0300  1303               	bcf	3,6	;RP1=0, select bank1
  2905  0301  00C8               	movwf	convert@x^(0+128)
  2906  0302                     l3354:
  2907                           
  2908                           ;LCD.c: 114:      a=x;
  2909  0302  084B               	movf	(convert@x+3)^(0+128),w
  2910  0303  00C0               	movwf	(convert@a+3)^(0+128)
  2911  0304  084A               	movf	(convert@x+2)^(0+128),w
  2912  0305  00BF               	movwf	(convert@a+2)^(0+128)
  2913  0306  0849               	movf	(convert@x+1)^(0+128),w
  2914  0307  00BE               	movwf	(convert@a+1)^(0+128)
  2915  0308  0848               	movf	convert@x^(0+128),w
  2916  0309  00BD               	movwf	convert@a^(0+128)
  2917  030A                     l3356:
  2918  030A  0840               	movf	(convert@a+3)^(0+128),w
  2919  030B  00F5               	movwf	___fltol@f1+3
  2920  030C  083F               	movf	(convert@a+2)^(0+128),w
  2921  030D  00F4               	movwf	___fltol@f1+2
  2922  030E  083E               	movf	(convert@a+1)^(0+128),w
  2923  030F  00F3               	movwf	___fltol@f1+1
  2924  0310  083D               	movf	convert@a^(0+128),w
  2925  0311  00F2               	movwf	___fltol@f1
  2926  0312  160A  118A  26E0  120A  118A  	fcall	___fltol
  2927  0317                     l3358:
  2928  0317                     l3360:
  2929                           
  2930                           ;LCD.c: 117:      mu=1;
  2931  0317  3001               	movlw	1
  2932  0318  1683               	bsf	3,5	;RP0=1, select bank1
  2933  0319  1303               	bcf	3,6	;RP1=0, select bank1
  2934  031A  00D0               	movwf	convert@mu^(0+128)
  2935  031B  3000               	movlw	0
  2936  031C  00D1               	movwf	(convert@mu^(0+128)+1)
  2937  031D                     l3362:
  2938                           
  2939                           ;LCD.c: 118:      digits=place;
  2940  031D  0842               	movf	(convert@place+1)^(0+128),w
  2941  031E  00CF               	movwf	(convert@digits+1)^(0+128)
  2942  031F  0841               	movf	convert@place^(0+128),w
  2943  0320  00CE               	movwf	convert@digits^(0+128)
  2944                           
  2945                           ;LCD.c: 119:      while(digits!=0)
  2946  0321  2C69               	goto	l3386
  2947  0322                     l3364:
  2948                           
  2949                           ;LCD.c: 120:      {;LCD.c: 121:          if(digits==1)mu=1;
  2950  0322  034E               	decf	convert@digits^(0+128),w
  2951  0323  044F               	iorwf	(convert@digits+1)^(0+128),w
  2952  0324  1D03               	btfss	3,2
  2953  0325  2B27               	goto	u4431
  2954  0326  2B28               	goto	u4430
  2955  0327                     u4431:
  2956  0327  2B2D               	goto	l3368
  2957  0328                     u4430:
  2958  0328                     l3366:
  2959  0328  3001               	movlw	1
  2960  0329  00D0               	movwf	convert@mu^(0+128)
  2961  032A  3000               	movlw	0
  2962  032B  00D1               	movwf	(convert@mu^(0+128)+1)
  2963  032C  2B6F               	goto	l3376
  2964  032D                     l3368:
  2965  032D  3002               	movlw	2
  2966  032E  00C5               	movwf	convert@j^(0+128)
  2967  032F  3000               	movlw	0
  2968  0330  00C6               	movwf	(convert@j^(0+128)+1)
  2969  0331  2B59               	goto	l3374
  2970  0332                     l3370:
  2971  0332  1683               	bsf	3,5	;RP0=1, select bank1
  2972  0333  1303               	bcf	3,6	;RP1=0, select bank1
  2973  0334  0851               	movf	(convert@mu+1)^(0+128),w
  2974  0335  1283               	bcf	3,5	;RP0=0, select bank0
  2975  0336  1303               	bcf	3,6	;RP1=0, select bank0
  2976  0337  00A6               	movwf	___wmul@multiplier+1
  2977  0338  1683               	bsf	3,5	;RP0=1, select bank1
  2978  0339  1303               	bcf	3,6	;RP1=0, select bank1
  2979  033A  0850               	movf	convert@mu^(0+128),w
  2980  033B  1283               	bcf	3,5	;RP0=0, select bank0
  2981  033C  1303               	bcf	3,6	;RP1=0, select bank0
  2982  033D  00A5               	movwf	___wmul@multiplier
  2983  033E  300A               	movlw	10
  2984  033F  00A7               	movwf	___wmul@multiplicand
  2985  0340  3000               	movlw	0
  2986  0341  00A8               	movwf	___wmul@multiplicand+1
  2987  0342  160A  118A  24F4  120A  118A  	fcall	___wmul
  2988  0347  1283               	bcf	3,5	;RP0=0, select bank0
  2989  0348  1303               	bcf	3,6	;RP1=0, select bank0
  2990  0349  0826               	movf	?___wmul+1,w
  2991  034A  1683               	bsf	3,5	;RP0=1, select bank1
  2992  034B  1303               	bcf	3,6	;RP1=0, select bank1
  2993  034C  00D1               	movwf	(convert@mu+1)^(0+128)
  2994  034D  1283               	bcf	3,5	;RP0=0, select bank0
  2995  034E  1303               	bcf	3,6	;RP1=0, select bank0
  2996  034F  0825               	movf	?___wmul,w
  2997  0350  1683               	bsf	3,5	;RP0=1, select bank1
  2998  0351  1303               	bcf	3,6	;RP1=0, select bank1
  2999  0352  00D0               	movwf	convert@mu^(0+128)
  3000  0353                     l3372:
  3001  0353  3001               	movlw	1
  3002  0354  07C5               	addwf	convert@j^(0+128),f
  3003  0355  1803               	skipnc
  3004  0356  0AC6               	incf	(convert@j+1)^(0+128),f
  3005  0357  3000               	movlw	0
  3006  0358  07C6               	addwf	(convert@j+1)^(0+128),f
  3007  0359                     l3374:
  3008  0359  084F               	movf	(convert@digits+1)^(0+128),w
  3009  035A  3A80               	xorlw	128
  3010  035B  1283               	bcf	3,5	;RP0=0, select bank0
  3011  035C  1303               	bcf	3,6	;RP1=0, select bank0
  3012  035D  00EB               	movwf	??_convert
  3013  035E  1683               	bsf	3,5	;RP0=1, select bank1
  3014  035F  1303               	bcf	3,6	;RP1=0, select bank1
  3015  0360  0846               	movf	(convert@j+1)^(0+128),w
  3016  0361  3A80               	xorlw	128
  3017  0362  1283               	bcf	3,5	;RP0=0, select bank0
  3018  0363  1303               	bcf	3,6	;RP1=0, select bank0
  3019  0364  026B               	subwf	??_convert,w
  3020  0365  1D03               	skipz
  3021  0366  2B6B               	goto	u4445
  3022  0367  1683               	bsf	3,5	;RP0=1, select bank1
  3023  0368  1303               	bcf	3,6	;RP1=0, select bank1
  3024  0369  0845               	movf	convert@j^(0+128),w
  3025  036A  024E               	subwf	convert@digits^(0+128),w
  3026  036B                     u4445:
  3027  036B  1803               	skipnc
  3028  036C  2B6E               	goto	u4441
  3029  036D  2B6F               	goto	u4440
  3030  036E                     u4441:
  3031  036E  2B32               	goto	l3370
  3032  036F                     u4440:
  3033  036F                     l3376:
  3034                           
  3035                           ;LCD.c: 124:          x=a/mu;
  3036  036F  1683               	bsf	3,5	;RP0=1, select bank1
  3037  0370  1303               	bcf	3,6	;RP1=0, select bank1
  3038  0371  0850               	movf	convert@mu^(0+128),w
  3039  0372  1283               	bcf	3,5	;RP0=0, select bank0
  3040  0373  1303               	bcf	3,6	;RP1=0, select bank0
  3041  0374  00A9               	movwf	___xxtofl@val
  3042  0375  1683               	bsf	3,5	;RP0=1, select bank1
  3043  0376  1303               	bcf	3,6	;RP1=0, select bank1
  3044  0377  0851               	movf	(convert@mu+1)^(0+128),w
  3045  0378  1283               	bcf	3,5	;RP0=0, select bank0
  3046  0379  1303               	bcf	3,6	;RP1=0, select bank0
  3047  037A  00AA               	movwf	___xxtofl@val+1
  3048  037B  3000               	movlw	0
  3049  037C  1BAA               	btfsc	___xxtofl@val+1,7
  3050  037D  30FF               	movlw	255
  3051  037E  00AB               	movwf	___xxtofl@val+2
  3052  037F  00AC               	movwf	___xxtofl@val+3
  3053  0380  3001               	movlw	1
  3054  0381  120A  158A  20F1  120A  118A  	fcall	___xxtofl
  3055  0386  1283               	bcf	3,5	;RP0=0, select bank0
  3056  0387  1303               	bcf	3,6	;RP1=0, select bank0
  3057  0388  082C               	movf	?___xxtofl+3,w
  3058  0389  00BA               	movwf	___fldiv@a+3
  3059  038A  082B               	movf	?___xxtofl+2,w
  3060  038B  00B9               	movwf	___fldiv@a+2
  3061  038C  082A               	movf	?___xxtofl+1,w
  3062  038D  00B8               	movwf	___fldiv@a+1
  3063  038E  0829               	movf	?___xxtofl,w
  3064  038F  00B7               	movwf	___fldiv@a
  3065  0390  1683               	bsf	3,5	;RP0=1, select bank1
  3066  0391  1303               	bcf	3,6	;RP1=0, select bank1
  3067  0392  0840               	movf	(convert@a+3)^(0+128),w
  3068  0393  1283               	bcf	3,5	;RP0=0, select bank0
  3069  0394  1303               	bcf	3,6	;RP1=0, select bank0
  3070  0395  00BE               	movwf	___fldiv@b+3
  3071  0396  1683               	bsf	3,5	;RP0=1, select bank1
  3072  0397  1303               	bcf	3,6	;RP1=0, select bank1
  3073  0398  083F               	movf	(convert@a+2)^(0+128),w
  3074  0399  1283               	bcf	3,5	;RP0=0, select bank0
  3075  039A  1303               	bcf	3,6	;RP1=0, select bank0
  3076  039B  00BD               	movwf	___fldiv@b+2
  3077  039C  1683               	bsf	3,5	;RP0=1, select bank1
  3078  039D  1303               	bcf	3,6	;RP1=0, select bank1
  3079  039E  083E               	movf	(convert@a+1)^(0+128),w
  3080  039F  1283               	bcf	3,5	;RP0=0, select bank0
  3081  03A0  1303               	bcf	3,6	;RP1=0, select bank0
  3082  03A1  00BC               	movwf	___fldiv@b+1
  3083  03A2  1683               	bsf	3,5	;RP0=1, select bank1
  3084  03A3  1303               	bcf	3,6	;RP1=0, select bank1
  3085  03A4  083D               	movf	convert@a^(0+128),w
  3086  03A5  1283               	bcf	3,5	;RP0=0, select bank0
  3087  03A6  1303               	bcf	3,6	;RP1=0, select bank0
  3088  03A7  00BB               	movwf	___fldiv@b
  3089  03A8  120A  158A  21AD  120A  118A  	fcall	___fldiv
  3090  03AD  1283               	bcf	3,5	;RP0=0, select bank0
  3091  03AE  1303               	bcf	3,6	;RP1=0, select bank0
  3092  03AF  083A               	movf	?___fldiv+3,w
  3093  03B0  1683               	bsf	3,5	;RP0=1, select bank1
  3094  03B1  1303               	bcf	3,6	;RP1=0, select bank1
  3095  03B2  00CB               	movwf	(convert@x+3)^(0+128)
  3096  03B3  1283               	bcf	3,5	;RP0=0, select bank0
  3097  03B4  1303               	bcf	3,6	;RP1=0, select bank0
  3098  03B5  0839               	movf	?___fldiv+2,w
  3099  03B6  1683               	bsf	3,5	;RP0=1, select bank1
  3100  03B7  1303               	bcf	3,6	;RP1=0, select bank1
  3101  03B8  00CA               	movwf	(convert@x+2)^(0+128)
  3102  03B9  1283               	bcf	3,5	;RP0=0, select bank0
  3103  03BA  1303               	bcf	3,6	;RP1=0, select bank0
  3104  03BB  0838               	movf	?___fldiv+1,w
  3105  03BC  1683               	bsf	3,5	;RP0=1, select bank1
  3106  03BD  1303               	bcf	3,6	;RP1=0, select bank1
  3107  03BE  00C9               	movwf	(convert@x+1)^(0+128)
  3108  03BF  1283               	bcf	3,5	;RP0=0, select bank0
  3109  03C0  1303               	bcf	3,6	;RP1=0, select bank0
  3110  03C1  0837               	movf	?___fldiv,w
  3111  03C2  1683               	bsf	3,5	;RP0=1, select bank1
  3112  03C3  1303               	bcf	3,6	;RP1=0, select bank1
  3113  03C4  00C8               	movwf	convert@x^(0+128)
  3114                           
  3115                           ;LCD.c: 125:          a=a-((int)x*mu);
  3116  03C5  0851               	movf	(convert@mu+1)^(0+128),w
  3117  03C6  1283               	bcf	3,5	;RP0=0, select bank0
  3118  03C7  1303               	bcf	3,6	;RP1=0, select bank0
  3119  03C8  00A8               	movwf	___wmul@multiplicand+1
  3120  03C9  1683               	bsf	3,5	;RP0=1, select bank1
  3121  03CA  1303               	bcf	3,6	;RP1=0, select bank1
  3122  03CB  0850               	movf	convert@mu^(0+128),w
  3123  03CC  1283               	bcf	3,5	;RP0=0, select bank0
  3124  03CD  1303               	bcf	3,6	;RP1=0, select bank0
  3125  03CE  00A7               	movwf	___wmul@multiplicand
  3126  03CF  1683               	bsf	3,5	;RP0=1, select bank1
  3127  03D0  1303               	bcf	3,6	;RP1=0, select bank1
  3128  03D1  084B               	movf	(convert@x+3)^(0+128),w
  3129  03D2  00F5               	movwf	___fltol@f1+3
  3130  03D3  084A               	movf	(convert@x+2)^(0+128),w
  3131  03D4  00F4               	movwf	___fltol@f1+2
  3132  03D5  0849               	movf	(convert@x+1)^(0+128),w
  3133  03D6  00F3               	movwf	___fltol@f1+1
  3134  03D7  0848               	movf	convert@x^(0+128),w
  3135  03D8  00F2               	movwf	___fltol@f1
  3136  03D9  160A  118A  26E0  120A  118A  	fcall	___fltol
  3137  03DE  0873               	movf	?___fltol+1,w
  3138  03DF  1283               	bcf	3,5	;RP0=0, select bank0
  3139  03E0  1303               	bcf	3,6	;RP1=0, select bank0
  3140  03E1  00A6               	movwf	___wmul@multiplier+1
  3141  03E2  0872               	movf	?___fltol,w
  3142  03E3  00A5               	movwf	___wmul@multiplier
  3143  03E4  160A  118A  24F4  120A  118A  	fcall	___wmul
  3144  03E9  1283               	bcf	3,5	;RP0=0, select bank0
  3145  03EA  1303               	bcf	3,6	;RP1=0, select bank0
  3146  03EB  0825               	movf	?___wmul,w
  3147  03EC  00A9               	movwf	___xxtofl@val
  3148  03ED  0826               	movf	?___wmul+1,w
  3149  03EE  00AA               	movwf	___xxtofl@val+1
  3150  03EF  3000               	movlw	0
  3151  03F0  1BAA               	btfsc	___xxtofl@val+1,7
  3152  03F1  30FF               	movlw	255
  3153  03F2  00AB               	movwf	___xxtofl@val+2
  3154  03F3  00AC               	movwf	___xxtofl@val+3
  3155  03F4  3001               	movlw	1
  3156  03F5  120A  158A  20F1  120A  118A  	fcall	___xxtofl
  3157  03FA  1283               	bcf	3,5	;RP0=0, select bank0
  3158  03FB  1303               	bcf	3,6	;RP1=0, select bank0
  3159  03FC  082C               	movf	?___xxtofl+3,w
  3160  03FD  00BA               	movwf	___flsub@a+3
  3161  03FE  082B               	movf	?___xxtofl+2,w
  3162  03FF  00B9               	movwf	___flsub@a+2
  3163  0400  082A               	movf	?___xxtofl+1,w
  3164  0401  00B8               	movwf	___flsub@a+1
  3165  0402  0829               	movf	?___xxtofl,w
  3166  0403  00B7               	movwf	___flsub@a
  3167  0404  1683               	bsf	3,5	;RP0=1, select bank1
  3168  0405  1303               	bcf	3,6	;RP1=0, select bank1
  3169  0406  0840               	movf	(convert@a+3)^(0+128),w
  3170  0407  1283               	bcf	3,5	;RP0=0, select bank0
  3171  0408  1303               	bcf	3,6	;RP1=0, select bank0
  3172  0409  00BE               	movwf	___flsub@b+3
  3173  040A  1683               	bsf	3,5	;RP0=1, select bank1
  3174  040B  1303               	bcf	3,6	;RP1=0, select bank1
  3175  040C  083F               	movf	(convert@a+2)^(0+128),w
  3176  040D  1283               	bcf	3,5	;RP0=0, select bank0
  3177  040E  1303               	bcf	3,6	;RP1=0, select bank0
  3178  040F  00BD               	movwf	___flsub@b+2
  3179  0410  1683               	bsf	3,5	;RP0=1, select bank1
  3180  0411  1303               	bcf	3,6	;RP1=0, select bank1
  3181  0412  083E               	movf	(convert@a+1)^(0+128),w
  3182  0413  1283               	bcf	3,5	;RP0=0, select bank0
  3183  0414  1303               	bcf	3,6	;RP1=0, select bank0
  3184  0415  00BC               	movwf	___flsub@b+1
  3185  0416  1683               	bsf	3,5	;RP0=1, select bank1
  3186  0417  1303               	bcf	3,6	;RP1=0, select bank1
  3187  0418  083D               	movf	convert@a^(0+128),w
  3188  0419  1283               	bcf	3,5	;RP0=0, select bank0
  3189  041A  1303               	bcf	3,6	;RP1=0, select bank0
  3190  041B  00BB               	movwf	___flsub@b
  3191  041C  160A  118A  24D0  120A  118A  	fcall	___flsub
  3192  0421  1283               	bcf	3,5	;RP0=0, select bank0
  3193  0422  1303               	bcf	3,6	;RP1=0, select bank0
  3194  0423  083A               	movf	?___flsub+3,w
  3195  0424  1683               	bsf	3,5	;RP0=1, select bank1
  3196  0425  1303               	bcf	3,6	;RP1=0, select bank1
  3197  0426  00C0               	movwf	(convert@a+3)^(0+128)
  3198  0427  1283               	bcf	3,5	;RP0=0, select bank0
  3199  0428  1303               	bcf	3,6	;RP1=0, select bank0
  3200  0429  0839               	movf	?___flsub+2,w
  3201  042A  1683               	bsf	3,5	;RP0=1, select bank1
  3202  042B  1303               	bcf	3,6	;RP1=0, select bank1
  3203  042C  00BF               	movwf	(convert@a+2)^(0+128)
  3204  042D  1283               	bcf	3,5	;RP0=0, select bank0
  3205  042E  1303               	bcf	3,6	;RP1=0, select bank0
  3206  042F  0838               	movf	?___flsub+1,w
  3207  0430  1683               	bsf	3,5	;RP0=1, select bank1
  3208  0431  1303               	bcf	3,6	;RP1=0, select bank1
  3209  0432  00BE               	movwf	(convert@a+1)^(0+128)
  3210  0433  1283               	bcf	3,5	;RP0=0, select bank0
  3211  0434  1303               	bcf	3,6	;RP1=0, select bank0
  3212  0435  0837               	movf	?___flsub,w
  3213  0436  1683               	bsf	3,5	;RP0=1, select bank1
  3214  0437  1303               	bcf	3,6	;RP1=0, select bank1
  3215  0438  00BD               	movwf	convert@a^(0+128)
  3216  0439                     l3378:
  3217                           
  3218                           ;LCD.c: 126:          data[i]=0x30+((int)x);
  3219  0439  084B               	movf	(convert@x+3)^(0+128),w
  3220  043A  00F5               	movwf	___fltol@f1+3
  3221  043B  084A               	movf	(convert@x+2)^(0+128),w
  3222  043C  00F4               	movwf	___fltol@f1+2
  3223  043D  0849               	movf	(convert@x+1)^(0+128),w
  3224  043E  00F3               	movwf	___fltol@f1+1
  3225  043F  0848               	movf	convert@x^(0+128),w
  3226  0440  00F2               	movwf	___fltol@f1
  3227  0441  160A  118A  26E0  120A  118A  	fcall	___fltol
  3228  0446  0872               	movf	?___fltol,w
  3229  0447  3E30               	addlw	48
  3230  0448  1283               	bcf	3,5	;RP0=0, select bank0
  3231  0449  1303               	bcf	3,6	;RP1=0, select bank0
  3232  044A  00EB               	movwf	??_convert
  3233  044B  1683               	bsf	3,5	;RP0=1, select bank1
  3234  044C  1303               	bcf	3,6	;RP1=0, select bank1
  3235  044D  084C               	movf	convert@i^(0+128),w
  3236  044E  0747               	addwf	convert@data^(0+128),w
  3237  044F  1283               	bcf	3,5	;RP0=0, select bank0
  3238  0450  1303               	bcf	3,6	;RP1=0, select bank0
  3239  0451  00EC               	movwf	??_convert+1
  3240  0452  086C               	movf	??_convert+1,w
  3241  0453  0084               	movwf	4
  3242  0454  086B               	movf	??_convert,w
  3243  0455  1383               	bcf	3,7	;select IRP bank0
  3244  0456  0080               	movwf	0
  3245  0457                     l3380:
  3246                           
  3247                           ;LCD.c: 127:          i++;
  3248  0457  3001               	movlw	1
  3249  0458  1683               	bsf	3,5	;RP0=1, select bank1
  3250  0459  1303               	bcf	3,6	;RP1=0, select bank1
  3251  045A  07CC               	addwf	convert@i^(0+128),f
  3252  045B  1803               	skipnc
  3253  045C  0ACD               	incf	(convert@i+1)^(0+128),f
  3254  045D  3000               	movlw	0
  3255  045E  07CD               	addwf	(convert@i+1)^(0+128),f
  3256  045F                     l3382:
  3257                           
  3258                           ;LCD.c: 128:          digits--;
  3259  045F  30FF               	movlw	255
  3260  0460  07CE               	addwf	convert@digits^(0+128),f
  3261  0461  1803               	skipnc
  3262  0462  0ACF               	incf	(convert@digits+1)^(0+128),f
  3263  0463  30FF               	movlw	255
  3264  0464  07CF               	addwf	(convert@digits+1)^(0+128),f
  3265  0465                     l3384:
  3266                           
  3267                           ;LCD.c: 129:          mu=1;
  3268  0465  3001               	movlw	1
  3269  0466  00D0               	movwf	convert@mu^(0+128)
  3270  0467  3000               	movlw	0
  3271  0468  00D1               	movwf	(convert@mu^(0+128)+1)
  3272  0469                     l3386:
  3273                           
  3274                           ;LCD.c: 119:      while(digits!=0)
  3275  0469  084E               	movf	convert@digits^(0+128),w
  3276  046A  044F               	iorwf	(convert@digits+1)^(0+128),w
  3277  046B  1D03               	btfss	3,2
  3278  046C  2C6E               	goto	u4451
  3279  046D  2C6F               	goto	u4450
  3280  046E                     u4451:
  3281  046E  2B22               	goto	l3364
  3282  046F                     u4450:
  3283  046F                     l3388:
  3284                           
  3285                           ;LCD.c: 132:     data[i]='\n';
  3286  046F  300A               	movlw	10
  3287  0470  1283               	bcf	3,5	;RP0=0, select bank0
  3288  0471  1303               	bcf	3,6	;RP1=0, select bank0
  3289  0472  00EB               	movwf	??_convert
  3290  0473  1683               	bsf	3,5	;RP0=1, select bank1
  3291  0474  1303               	bcf	3,6	;RP1=0, select bank1
  3292  0475  084C               	movf	convert@i^(0+128),w
  3293  0476  0747               	addwf	convert@data^(0+128),w
  3294  0477  1283               	bcf	3,5	;RP0=0, select bank0
  3295  0478  1303               	bcf	3,6	;RP1=0, select bank0
  3296  0479  00EC               	movwf	??_convert+1
  3297  047A  086C               	movf	??_convert+1,w
  3298  047B  0084               	movwf	4
  3299  047C  086B               	movf	??_convert,w
  3300  047D  1383               	bcf	3,7	;select IRP bank0
  3301  047E  0080               	movwf	0
  3302  047F                     l143:
  3303  047F  0008               	return
  3304  0480                     __end_of_convert:
  3305                           
  3306                           	psect	text4
  3307  08F1                     __ptext4:	
  3308 ;; *************** function ___xxtofl *****************
  3309 ;; Defined at:
  3310 ;;		line 10 in file "C:\Program Files\Microchip\xc8\v2.31\pic\sources\c90\common\xxtofl.c"
  3311 ;; Parameters:    Size  Location     Type
  3312 ;;  sign            1    wreg     unsigned char 
  3313 ;;  val             4    9[BANK0 ] long 
  3314 ;; Auto vars:     Size  Location     Type
  3315 ;;  sign            1   17[BANK0 ] unsigned char 
  3316 ;;  arg             4   19[BANK0 ] unsigned long 
  3317 ;;  exp             1   18[BANK0 ] unsigned char 
  3318 ;; Return value:  Size  Location     Type
  3319 ;;                  4    9[BANK0 ] unsigned char 
  3320 ;; Registers used:
  3321 ;;		wreg, status,2, status,0
  3322 ;; Tracked objects:
  3323 ;;		On entry : 0/0
  3324 ;;		On exit  : 0/0
  3325 ;;		Unchanged: 0/0
  3326 ;; Data sizes:     COMMON   BANK0   BANK1   BANK3   BANK2
  3327 ;;      Params:         0       4       0       0       0
  3328 ;;      Locals:         0       6       0       0       0
  3329 ;;      Temps:          0       4       0       0       0
  3330 ;;      Totals:         0      14       0       0       0
  3331 ;;Total ram usage:       14 bytes
  3332 ;; Hardware stack levels used:    1
  3333 ;; Hardware stack levels required when called:    1
  3334 ;; This function calls:
  3335 ;;		Nothing
  3336 ;; This function is called by:
  3337 ;;		_main
  3338 ;;		_convert
  3339 ;; This function uses a non-reentrant model
  3340 ;;
  3341                           
  3342                           
  3343                           ;psect for function ___xxtofl
  3344  08F1                     ___xxtofl:
  3345                           
  3346                           ;incstack = 0
  3347                           ; Regs used in ___xxtofl: [wreg+status,2+status,0]
  3348                           ;___xxtofl@sign stored from wreg
  3349  08F1  1283               	bcf	3,5	;RP0=0, select bank0
  3350  08F2  1303               	bcf	3,6	;RP1=0, select bank0
  3351  08F3  00B1               	movwf	___xxtofl@sign
  3352  08F4                     l2598:
  3353  08F4  0831               	movf	___xxtofl@sign,w
  3354  08F5  1903               	btfsc	3,2
  3355  08F6  28F8               	goto	u3361
  3356  08F7  28F9               	goto	u3360
  3357  08F8                     u3361:
  3358  08F8  290D               	goto	l2604
  3359  08F9                     u3360:
  3360  08F9                     l2600:
  3361  08F9  1FAC               	btfss	___xxtofl@val+3,7
  3362  08FA  28FC               	goto	u3371
  3363  08FB  28FD               	goto	u3370
  3364  08FC                     u3371:
  3365  08FC  290D               	goto	l2604
  3366  08FD                     u3370:
  3367  08FD                     l2602:
  3368  08FD  0929               	comf	___xxtofl@val,w
  3369  08FE  00B3               	movwf	___xxtofl@arg
  3370  08FF  092A               	comf	___xxtofl@val+1,w
  3371  0900  00B4               	movwf	___xxtofl@arg+1
  3372  0901  092B               	comf	___xxtofl@val+2,w
  3373  0902  00B5               	movwf	___xxtofl@arg+2
  3374  0903  092C               	comf	___xxtofl@val+3,w
  3375  0904  00B6               	movwf	___xxtofl@arg+3
  3376  0905  0AB3               	incf	___xxtofl@arg,f
  3377  0906  1903               	skipnz
  3378  0907  0AB4               	incf	___xxtofl@arg+1,f
  3379  0908  1903               	skipnz
  3380  0909  0AB5               	incf	___xxtofl@arg+2,f
  3381  090A  1903               	skipnz
  3382  090B  0AB6               	incf	___xxtofl@arg+3,f
  3383  090C  2915               	goto	l785
  3384  090D                     l2604:
  3385  090D  082C               	movf	___xxtofl@val+3,w
  3386  090E  00B6               	movwf	___xxtofl@arg+3
  3387  090F  082B               	movf	___xxtofl@val+2,w
  3388  0910  00B5               	movwf	___xxtofl@arg+2
  3389  0911  082A               	movf	___xxtofl@val+1,w
  3390  0912  00B4               	movwf	___xxtofl@arg+1
  3391  0913  0829               	movf	___xxtofl@val,w
  3392  0914  00B3               	movwf	___xxtofl@arg
  3393  0915                     l785:
  3394  0915  082C               	movf	___xxtofl@val+3,w
  3395  0916  042B               	iorwf	___xxtofl@val+2,w
  3396  0917  042A               	iorwf	___xxtofl@val+1,w
  3397  0918  0429               	iorwf	___xxtofl@val,w
  3398  0919  1D03               	skipz
  3399  091A  291C               	goto	u3381
  3400  091B  291D               	goto	u3380
  3401  091C                     u3381:
  3402  091C  2926               	goto	l2610
  3403  091D                     u3380:
  3404  091D                     l2606:
  3405  091D  3000               	movlw	0
  3406  091E  00AC               	movwf	?___xxtofl+3
  3407  091F  3000               	movlw	0
  3408  0920  00AB               	movwf	?___xxtofl+2
  3409  0921  3000               	movlw	0
  3410  0922  00AA               	movwf	?___xxtofl+1
  3411  0923  3000               	movlw	0
  3412  0924  00A9               	movwf	?___xxtofl
  3413  0925  29AC               	goto	l787
  3414  0926                     l2610:
  3415  0926  3096               	movlw	150
  3416  0927  00AD               	movwf	??___xxtofl
  3417  0928  082D               	movf	??___xxtofl,w
  3418  0929  00B2               	movwf	___xxtofl@exp
  3419  092A  2938               	goto	l2614
  3420  092B                     l2612:
  3421  092B  3001               	movlw	1
  3422  092C  00AD               	movwf	??___xxtofl
  3423  092D  082D               	movf	??___xxtofl,w
  3424  092E  07B2               	addwf	___xxtofl@exp,f
  3425  092F  3001               	movlw	1
  3426  0930                     u3395:
  3427  0930  1003               	clrc
  3428  0931  0CB6               	rrf	___xxtofl@arg+3,f
  3429  0932  0CB5               	rrf	___xxtofl@arg+2,f
  3430  0933  0CB4               	rrf	___xxtofl@arg+1,f
  3431  0934  0CB3               	rrf	___xxtofl@arg,f
  3432  0935  3EFF               	addlw	-1
  3433  0936  1D03               	skipz
  3434  0937  2930               	goto	u3395
  3435  0938                     l2614:
  3436  0938  30FE               	movlw	254
  3437  0939  0536               	andwf	___xxtofl@arg+3,w
  3438  093A  1D03               	btfss	3,2
  3439  093B  293D               	goto	u3401
  3440  093C  293E               	goto	u3400
  3441  093D                     u3401:
  3442  093D  292B               	goto	l2612
  3443  093E                     u3400:
  3444  093E  295A               	goto	l791
  3445  093F                     l2616:
  3446  093F  3001               	movlw	1
  3447  0940  00AD               	movwf	??___xxtofl
  3448  0941  082D               	movf	??___xxtofl,w
  3449  0942  07B2               	addwf	___xxtofl@exp,f
  3450  0943                     l2618:
  3451  0943  3001               	movlw	1
  3452  0944  07B3               	addwf	___xxtofl@arg,f
  3453  0945  3000               	movlw	0
  3454  0946  1803               	skipnc
  3455  0947  3001               	movlw	1
  3456  0948  07B4               	addwf	___xxtofl@arg+1,f
  3457  0949  3000               	movlw	0
  3458  094A  1803               	skipnc
  3459  094B  3001               	movlw	1
  3460  094C  07B5               	addwf	___xxtofl@arg+2,f
  3461  094D  3000               	movlw	0
  3462  094E  1803               	skipnc
  3463  094F  3001               	movlw	1
  3464  0950  07B6               	addwf	___xxtofl@arg+3,f
  3465  0951                     l2620:
  3466  0951  3001               	movlw	1
  3467  0952                     u3415:
  3468  0952  1003               	clrc
  3469  0953  0CB6               	rrf	___xxtofl@arg+3,f
  3470  0954  0CB5               	rrf	___xxtofl@arg+2,f
  3471  0955  0CB4               	rrf	___xxtofl@arg+1,f
  3472  0956  0CB3               	rrf	___xxtofl@arg,f
  3473  0957  3EFF               	addlw	-1
  3474  0958  1D03               	skipz
  3475  0959  2952               	goto	u3415
  3476  095A                     l791:
  3477  095A  30FF               	movlw	255
  3478  095B  0536               	andwf	___xxtofl@arg+3,w
  3479  095C  1D03               	btfss	3,2
  3480  095D  295F               	goto	u3421
  3481  095E  2960               	goto	u3420
  3482  095F                     u3421:
  3483  095F  293F               	goto	l2616
  3484  0960                     u3420:
  3485  0960  296C               	goto	l2624
  3486  0961                     l2622:
  3487  0961  3001               	movlw	1
  3488  0962  02B2               	subwf	___xxtofl@exp,f
  3489  0963  3001               	movlw	1
  3490  0964  00AD               	movwf	??___xxtofl
  3491  0965                     u3435:
  3492  0965  1003               	clrc
  3493  0966  0DB3               	rlf	___xxtofl@arg,f
  3494  0967  0DB4               	rlf	___xxtofl@arg+1,f
  3495  0968  0DB5               	rlf	___xxtofl@arg+2,f
  3496  0969  0DB6               	rlf	___xxtofl@arg+3,f
  3497  096A  0BAD               	decfsz	??___xxtofl,f
  3498  096B  2965               	goto	u3435
  3499  096C                     l2624:
  3500  096C  1BB5               	btfsc	___xxtofl@arg+2,7
  3501  096D  296F               	goto	u3441
  3502  096E  2970               	goto	u3440
  3503  096F                     u3441:
  3504  096F  2976               	goto	l798
  3505  0970                     u3440:
  3506  0970                     l2626:
  3507  0970  3002               	movlw	2
  3508  0971  0232               	subwf	___xxtofl@exp,w
  3509  0972  1803               	skipnc
  3510  0973  2975               	goto	u3451
  3511  0974  2976               	goto	u3450
  3512  0975                     u3451:
  3513  0975  2961               	goto	l2622
  3514  0976                     u3450:
  3515  0976                     l798:
  3516  0976  1832               	btfsc	___xxtofl@exp,0
  3517  0977  2979               	goto	u3461
  3518  0978  297A               	goto	u3460
  3519  0979                     u3461:
  3520  0979  2982               	goto	l799
  3521  097A                     u3460:
  3522  097A                     l2628:
  3523  097A  30FF               	movlw	255
  3524  097B  05B3               	andwf	___xxtofl@arg,f
  3525  097C  30FF               	movlw	255
  3526  097D  05B4               	andwf	___xxtofl@arg+1,f
  3527  097E  307F               	movlw	127
  3528  097F  05B5               	andwf	___xxtofl@arg+2,f
  3529  0980  30FF               	movlw	255
  3530  0981  05B6               	andwf	___xxtofl@arg+3,f
  3531  0982                     l799:
  3532  0982  1003               	clrc
  3533  0983  0CB2               	rrf	___xxtofl@exp,f
  3534  0984                     l2630:
  3535  0984  0832               	movf	___xxtofl@exp,w
  3536  0985  00AD               	movwf	??___xxtofl
  3537  0986  01AE               	clrf	??___xxtofl+1
  3538  0987  01AF               	clrf	??___xxtofl+2
  3539  0988  01B0               	clrf	??___xxtofl+3
  3540  0989  3018               	movlw	24
  3541  098A                     u3475:
  3542  098A  1003               	clrc
  3543  098B  0DAD               	rlf	??___xxtofl,f
  3544  098C  0DAE               	rlf	??___xxtofl+1,f
  3545  098D  0DAF               	rlf	??___xxtofl+2,f
  3546  098E  0DB0               	rlf	??___xxtofl+3,f
  3547  098F                     u3470:
  3548  098F  3EFF               	addlw	-1
  3549  0990  1D03               	skipz
  3550  0991  298A               	goto	u3475
  3551  0992  082D               	movf	??___xxtofl,w
  3552  0993  04B3               	iorwf	___xxtofl@arg,f
  3553  0994  082E               	movf	??___xxtofl+1,w
  3554  0995  04B4               	iorwf	___xxtofl@arg+1,f
  3555  0996  082F               	movf	??___xxtofl+2,w
  3556  0997  04B5               	iorwf	___xxtofl@arg+2,f
  3557  0998  0830               	movf	??___xxtofl+3,w
  3558  0999  04B6               	iorwf	___xxtofl@arg+3,f
  3559  099A                     l2632:
  3560  099A  0831               	movf	___xxtofl@sign,w
  3561  099B  1903               	btfsc	3,2
  3562  099C  299E               	goto	u3481
  3563  099D  299F               	goto	u3480
  3564  099E                     u3481:
  3565  099E  29A4               	goto	l2638
  3566  099F                     u3480:
  3567  099F                     l2634:
  3568  099F  1FAC               	btfss	___xxtofl@val+3,7
  3569  09A0  29A2               	goto	u3491
  3570  09A1  29A3               	goto	u3490
  3571  09A2                     u3491:
  3572  09A2  29A4               	goto	l2638
  3573  09A3                     u3490:
  3574  09A3                     l2636:
  3575  09A3  17B6               	bsf	___xxtofl@arg+3,7
  3576  09A4                     l2638:
  3577  09A4  0836               	movf	___xxtofl@arg+3,w
  3578  09A5  00AC               	movwf	?___xxtofl+3
  3579  09A6  0835               	movf	___xxtofl@arg+2,w
  3580  09A7  00AB               	movwf	?___xxtofl+2
  3581  09A8  0834               	movf	___xxtofl@arg+1,w
  3582  09A9  00AA               	movwf	?___xxtofl+1
  3583  09AA  0833               	movf	___xxtofl@arg,w
  3584  09AB  00A9               	movwf	?___xxtofl
  3585  09AC                     l787:
  3586  09AC  0008               	return
  3587  09AD                     __end_of___xxtofl:
  3588                           
  3589                           	psect	text5
  3590  14F4                     __ptext5:	
  3591 ;; *************** function ___wmul *****************
  3592 ;; Defined at:
  3593 ;;		line 15 in file "C:\Program Files\Microchip\xc8\v2.31\pic\sources\c90\common\Umul16.c"
  3594 ;; Parameters:    Size  Location     Type
  3595 ;;  multiplier      2    5[BANK0 ] unsigned int 
  3596 ;;  multiplicand    2    7[BANK0 ] unsigned int 
  3597 ;; Auto vars:     Size  Location     Type
  3598 ;;  product         2    8[COMMON] unsigned int 
  3599 ;; Return value:  Size  Location     Type
  3600 ;;                  2    5[BANK0 ] unsigned int 
  3601 ;; Registers used:
  3602 ;;		wreg, status,2, status,0
  3603 ;; Tracked objects:
  3604 ;;		On entry : 0/0
  3605 ;;		On exit  : 0/0
  3606 ;;		Unchanged: 0/0
  3607 ;; Data sizes:     COMMON   BANK0   BANK1   BANK3   BANK2
  3608 ;;      Params:         0       4       0       0       0
  3609 ;;      Locals:         2       0       0       0       0
  3610 ;;      Temps:          0       0       0       0       0
  3611 ;;      Totals:         2       4       0       0       0
  3612 ;;Total ram usage:        6 bytes
  3613 ;; Hardware stack levels used:    1
  3614 ;; Hardware stack levels required when called:    1
  3615 ;; This function calls:
  3616 ;;		Nothing
  3617 ;; This function is called by:
  3618 ;;		_convert
  3619 ;; This function uses a non-reentrant model
  3620 ;;
  3621                           
  3622                           
  3623                           ;psect for function ___wmul
  3624  14F4                     ___wmul:
  3625  14F4                     l3022:	
  3626                           ;incstack = 0
  3627                           ; Regs used in ___wmul: [wreg+status,2+status,0]
  3628                           
  3629  14F4  01F8               	clrf	___wmul@product
  3630  14F5  01F9               	clrf	___wmul@product+1
  3631  14F6                     l3024:
  3632  14F6  1283               	bcf	3,5	;RP0=0, select bank0
  3633  14F7  1303               	bcf	3,6	;RP1=0, select bank0
  3634  14F8  1C25               	btfss	___wmul@multiplier,0
  3635  14F9  2CFB               	goto	u3711
  3636  14FA  2CFC               	goto	u3710
  3637  14FB                     u3711:
  3638  14FB  2D02               	goto	l352
  3639  14FC                     u3710:
  3640  14FC                     l3026:
  3641  14FC  0827               	movf	___wmul@multiplicand,w
  3642  14FD  07F8               	addwf	___wmul@product,f
  3643  14FE  1803               	skipnc
  3644  14FF  0AF9               	incf	___wmul@product+1,f
  3645  1500  0828               	movf	___wmul@multiplicand+1,w
  3646  1501  07F9               	addwf	___wmul@product+1,f
  3647  1502                     l352:
  3648  1502  3001               	movlw	1
  3649  1503                     u3725:
  3650  1503  1003               	clrc
  3651  1504  0DA7               	rlf	___wmul@multiplicand,f
  3652  1505  0DA8               	rlf	___wmul@multiplicand+1,f
  3653  1506  3EFF               	addlw	-1
  3654  1507  1D03               	skipz
  3655  1508  2D03               	goto	u3725
  3656  1509                     l3028:
  3657  1509  3001               	movlw	1
  3658  150A                     u3735:
  3659  150A  1003               	clrc
  3660  150B  0CA6               	rrf	___wmul@multiplier+1,f
  3661  150C  0CA5               	rrf	___wmul@multiplier,f
  3662  150D  3EFF               	addlw	-1
  3663  150E  1D03               	skipz
  3664  150F  2D0A               	goto	u3735
  3665  1510                     l3030:
  3666  1510  0825               	movf	___wmul@multiplier,w
  3667  1511  0426               	iorwf	___wmul@multiplier+1,w
  3668  1512  1D03               	btfss	3,2
  3669  1513  2D15               	goto	u3741
  3670  1514  2D16               	goto	u3740
  3671  1515                     u3741:
  3672  1515  2CF6               	goto	l3024
  3673  1516                     u3740:
  3674  1516                     l3032:
  3675  1516  0879               	movf	___wmul@product+1,w
  3676  1517  00A6               	movwf	?___wmul+1
  3677  1518  0878               	movf	___wmul@product,w
  3678  1519  00A5               	movwf	?___wmul
  3679  151A                     l354:
  3680  151A  0008               	return
  3681  151B                     __end_of___wmul:
  3682                           
  3683                           	psect	text6
  3684  16E0                     __ptext6:	
  3685 ;; *************** function ___fltol *****************
  3686 ;; Defined at:
  3687 ;;		line 43 in file "C:\Program Files\Microchip\xc8\v2.31\pic\sources\c90\common\fltol.c"
  3688 ;; Parameters:    Size  Location     Type
  3689 ;;  f1              4    2[COMMON] unsigned int 
  3690 ;; Auto vars:     Size  Location     Type
  3691 ;;  exp1            1    7[COMMON] unsigned char 
  3692 ;;  sign1           1    6[COMMON] unsigned char 
  3693 ;; Return value:  Size  Location     Type
  3694 ;;                  4    2[COMMON] long 
  3695 ;; Registers used:
  3696 ;;		wreg, status,2, status,0
  3697 ;; Tracked objects:
  3698 ;;		On entry : 0/0
  3699 ;;		On exit  : 0/0
  3700 ;;		Unchanged: 0/0
  3701 ;; Data sizes:     COMMON   BANK0   BANK1   BANK3   BANK2
  3702 ;;      Params:         4       0       0       0       0
  3703 ;;      Locals:         2       0       0       0       0
  3704 ;;      Temps:          0       5       0       0       0
  3705 ;;      Totals:         6       5       0       0       0
  3706 ;;Total ram usage:       11 bytes
  3707 ;; Hardware stack levels used:    1
  3708 ;; Hardware stack levels required when called:    1
  3709 ;; This function calls:
  3710 ;;		Nothing
  3711 ;; This function is called by:
  3712 ;;		_convert
  3713 ;; This function uses a non-reentrant model
  3714 ;;
  3715                           
  3716                           
  3717                           ;psect for function ___fltol
  3718  16E0                     ___fltol:
  3719  16E0                     l3080:	
  3720                           ;incstack = 0
  3721                           ; Regs used in ___fltol: [wreg+status,2+status,0]
  3722                           
  3723  16E0  1003               	clrc
  3724  16E1  0D74               	rlf	___fltol@f1+2,w
  3725  16E2  0D75               	rlf	___fltol@f1+3,w
  3726  16E3  1283               	bcf	3,5	;RP0=0, select bank0
  3727  16E4  1303               	bcf	3,6	;RP1=0, select bank0
  3728  16E5  00A0               	movwf	??___fltol
  3729  16E6  0820               	movf	??___fltol,w
  3730  16E7  00F7               	movwf	___fltol@exp1
  3731  16E8  0877               	movf	___fltol@exp1,w
  3732  16E9  1D03               	btfss	3,2
  3733  16EA  2EEC               	goto	u3851
  3734  16EB  2EED               	goto	u3850
  3735  16EC                     u3851:
  3736  16EC  2EF6               	goto	l3086
  3737  16ED                     u3850:
  3738  16ED                     l3082:
  3739  16ED  3000               	movlw	0
  3740  16EE  00F5               	movwf	?___fltol+3
  3741  16EF  3000               	movlw	0
  3742  16F0  00F4               	movwf	?___fltol+2
  3743  16F1  3000               	movlw	0
  3744  16F2  00F3               	movwf	?___fltol+1
  3745  16F3  3000               	movlw	0
  3746  16F4  00F2               	movwf	?___fltol
  3747  16F5  2F5B               	goto	l538
  3748  16F6                     l3086:
  3749  16F6  0872               	movf	___fltol@f1,w
  3750  16F7  00A0               	movwf	??___fltol
  3751  16F8  0873               	movf	___fltol@f1+1,w
  3752  16F9  00A1               	movwf	??___fltol+1
  3753  16FA  0874               	movf	___fltol@f1+2,w
  3754  16FB  00A2               	movwf	??___fltol+2
  3755  16FC  0875               	movf	___fltol@f1+3,w
  3756  16FD  00A3               	movwf	??___fltol+3
  3757  16FE  301F               	movlw	31
  3758  16FF                     u3865:
  3759  16FF  1003               	clrc
  3760  1700  0CA3               	rrf	??___fltol+3,f
  3761  1701  0CA2               	rrf	??___fltol+2,f
  3762  1702  0CA1               	rrf	??___fltol+1,f
  3763  1703  0CA0               	rrf	??___fltol,f
  3764  1704                     u3860:
  3765  1704  3EFF               	addlw	-1
  3766  1705  1D03               	skipz
  3767  1706  2EFF               	goto	u3865
  3768  1707  0820               	movf	??___fltol,w
  3769  1708  00A4               	movwf	??___fltol+4
  3770  1709  0824               	movf	??___fltol+4,w
  3771  170A  00F6               	movwf	___fltol@sign1
  3772  170B                     l3088:
  3773  170B  17F4               	bsf	___fltol@f1+2,7
  3774  170C                     l3090:
  3775  170C  30FF               	movlw	255
  3776  170D  05F2               	andwf	___fltol@f1,f
  3777  170E  30FF               	movlw	255
  3778  170F  05F3               	andwf	___fltol@f1+1,f
  3779  1710  30FF               	movlw	255
  3780  1711  05F4               	andwf	___fltol@f1+2,f
  3781  1712  3000               	movlw	0
  3782  1713  05F5               	andwf	___fltol@f1+3,f
  3783  1714                     l3092:
  3784  1714  3096               	movlw	150
  3785  1715  02F7               	subwf	___fltol@exp1,f
  3786  1716                     l3094:
  3787  1716  1FF7               	btfss	___fltol@exp1,7
  3788  1717  2F19               	goto	u3871
  3789  1718  2F1A               	goto	u3870
  3790  1719                     u3871:
  3791  1719  2F34               	goto	l3104
  3792  171A                     u3870:
  3793  171A                     l3096:
  3794  171A  0877               	movf	___fltol@exp1,w
  3795  171B  3A80               	xorlw	128
  3796  171C  3E97               	addlw	151
  3797  171D  1803               	skipnc
  3798  171E  2F20               	goto	u3881
  3799  171F  2F21               	goto	u3880
  3800  1720                     u3881:
  3801  1720  2F22               	goto	l3102
  3802  1721                     u3880:
  3803  1721  2EED               	goto	l3082
  3804  1722                     l3102:
  3805  1722  3001               	movlw	1
  3806  1723                     u3895:
  3807  1723  1003               	clrc
  3808  1724  0CF5               	rrf	___fltol@f1+3,f
  3809  1725  0CF4               	rrf	___fltol@f1+2,f
  3810  1726  0CF3               	rrf	___fltol@f1+1,f
  3811  1727  0CF2               	rrf	___fltol@f1,f
  3812  1728  3EFF               	addlw	-1
  3813  1729  1D03               	skipz
  3814  172A  2F23               	goto	u3895
  3815  172B  3001               	movlw	1
  3816  172C  00A0               	movwf	??___fltol
  3817  172D  0820               	movf	??___fltol,w
  3818  172E  07F7               	addwf	___fltol@exp1,f
  3819  172F  1D03               	btfss	3,2
  3820  1730  2F32               	goto	u3901
  3821  1731  2F33               	goto	u3900
  3822  1732                     u3901:
  3823  1732  2F22               	goto	l3102
  3824  1733                     u3900:
  3825  1733  2F4B               	goto	l3112
  3826  1734                     l3104:
  3827  1734  3020               	movlw	32
  3828  1735  0277               	subwf	___fltol@exp1,w
  3829  1736  1C03               	skipc
  3830  1737  2F39               	goto	u3911
  3831  1738  2F3A               	goto	u3910
  3832  1739                     u3911:
  3833  1739  2F46               	goto	l545
  3834  173A                     u3910:
  3835  173A  2EED               	goto	l3082
  3836  173B                     l3110:
  3837  173B  3001               	movlw	1
  3838  173C  00A0               	movwf	??___fltol
  3839  173D                     u3925:
  3840  173D  1003               	clrc
  3841  173E  0DF2               	rlf	___fltol@f1,f
  3842  173F  0DF3               	rlf	___fltol@f1+1,f
  3843  1740  0DF4               	rlf	___fltol@f1+2,f
  3844  1741  0DF5               	rlf	___fltol@f1+3,f
  3845  1742  0BA0               	decfsz	??___fltol,f
  3846  1743  2F3D               	goto	u3925
  3847  1744  3001               	movlw	1
  3848  1745  02F7               	subwf	___fltol@exp1,f
  3849  1746                     l545:
  3850  1746  0877               	movf	___fltol@exp1,w
  3851  1747  1D03               	btfss	3,2
  3852  1748  2F4A               	goto	u3931
  3853  1749  2F4B               	goto	u3930
  3854  174A                     u3931:
  3855  174A  2F3B               	goto	l3110
  3856  174B                     u3930:
  3857  174B                     l3112:
  3858  174B  0876               	movf	___fltol@sign1,w
  3859  174C  1903               	btfsc	3,2
  3860  174D  2F4F               	goto	u3941
  3861  174E  2F50               	goto	u3940
  3862  174F                     u3941:
  3863  174F  2F5B               	goto	l548
  3864  1750                     u3940:
  3865  1750                     l3114:
  3866  1750  09F2               	comf	___fltol@f1,f
  3867  1751  09F3               	comf	___fltol@f1+1,f
  3868  1752  09F4               	comf	___fltol@f1+2,f
  3869  1753  09F5               	comf	___fltol@f1+3,f
  3870  1754  0AF2               	incf	___fltol@f1,f
  3871  1755  1903               	skipnz
  3872  1756  0AF3               	incf	___fltol@f1+1,f
  3873  1757  1903               	skipnz
  3874  1758  0AF4               	incf	___fltol@f1+2,f
  3875  1759  1903               	skipnz
  3876  175A  0AF5               	incf	___fltol@f1+3,f
  3877  175B                     l548:
  3878  175B                     l538:
  3879  175B  0008               	return
  3880  175C                     __end_of___fltol:
  3881                           
  3882                           	psect	text7
  3883  14D0                     __ptext7:	
  3884 ;; *************** function ___flsub *****************
  3885 ;; Defined at:
  3886 ;;		line 242 in file "C:\Program Files\Microchip\xc8\v2.31\pic\sources\c90\common\sprcadd.c"
  3887 ;; Parameters:    Size  Location     Type
  3888 ;;  a               4   23[BANK0 ] long 
  3889 ;;  b               4   27[BANK0 ] long 
  3890 ;; Auto vars:     Size  Location     Type
  3891 ;;		None
  3892 ;; Return value:  Size  Location     Type
  3893 ;;                  4   23[BANK0 ] long 
  3894 ;; Registers used:
  3895 ;;		wreg, status,2, status,0, btemp+1, pclath, cstack
  3896 ;; Tracked objects:
  3897 ;;		On entry : 0/0
  3898 ;;		On exit  : 0/0
  3899 ;;		Unchanged: 0/0
  3900 ;; Data sizes:     COMMON   BANK0   BANK1   BANK3   BANK2
  3901 ;;      Params:         0       8       0       0       0
  3902 ;;      Locals:         0       0       0       0       0
  3903 ;;      Temps:          0       0       0       0       0
  3904 ;;      Totals:         0       8       0       0       0
  3905 ;;Total ram usage:        8 bytes
  3906 ;; Hardware stack levels used:    1
  3907 ;; Hardware stack levels required when called:    2
  3908 ;; This function calls:
  3909 ;;		___fladd
  3910 ;; This function is called by:
  3911 ;;		_convert
  3912 ;; This function uses a non-reentrant model
  3913 ;;
  3914                           
  3915                           
  3916                           ;psect for function ___flsub
  3917  14D0                     ___flsub:
  3918  14D0                     l2310:	
  3919                           ;incstack = 0
  3920                           ; Regs used in ___flsub: [wreg+status,2+status,0+btemp+1+pclath+cstack]
  3921                           
  3922  14D0  3080               	movlw	128
  3923  14D1  1283               	bcf	3,5	;RP0=0, select bank0
  3924  14D2  1303               	bcf	3,6	;RP1=0, select bank0
  3925  14D3  06BA               	xorwf	___flsub@a+3,f
  3926  14D4                     l2312:
  3927  14D4  083E               	movf	___flsub@b+3,w
  3928  14D5  00F5               	movwf	___fladd@b+3
  3929  14D6  083D               	movf	___flsub@b+2,w
  3930  14D7  00F4               	movwf	___fladd@b+2
  3931  14D8  083C               	movf	___flsub@b+1,w
  3932  14D9  00F3               	movwf	___fladd@b+1
  3933  14DA  083B               	movf	___flsub@b,w
  3934  14DB  00F2               	movwf	___fladd@b
  3935  14DC  083A               	movf	___flsub@a+3,w
  3936  14DD  00F9               	movwf	___fladd@a+3
  3937  14DE  0839               	movf	___flsub@a+2,w
  3938  14DF  00F8               	movwf	___fladd@a+2
  3939  14E0  0838               	movf	___flsub@a+1,w
  3940  14E1  00F7               	movwf	___fladd@a+1
  3941  14E2  0837               	movf	___flsub@a,w
  3942  14E3  00F6               	movwf	___fladd@a
  3943  14E4  120A  158A  2578  160A  118A  	fcall	___fladd
  3944  14E9  0875               	movf	?___fladd+3,w
  3945  14EA  1283               	bcf	3,5	;RP0=0, select bank0
  3946  14EB  1303               	bcf	3,6	;RP1=0, select bank0
  3947  14EC  00BA               	movwf	?___flsub+3
  3948  14ED  0874               	movf	?___fladd+2,w
  3949  14EE  00B9               	movwf	?___flsub+2
  3950  14EF  0873               	movf	?___fladd+1,w
  3951  14F0  00B8               	movwf	?___flsub+1
  3952  14F1  0872               	movf	?___fladd,w
  3953  14F2  00B7               	movwf	?___flsub
  3954  14F3                     l691:
  3955  14F3  0008               	return
  3956  14F4                     __end_of___flsub:
  3957                           
  3958                           	psect	text8
  3959  0D78                     __ptext8:	
  3960 ;; *************** function ___fladd *****************
  3961 ;; Defined at:
  3962 ;;		line 10 in file "C:\Program Files\Microchip\xc8\v2.31\pic\sources\c90\common\sprcadd.c"
  3963 ;; Parameters:    Size  Location     Type
  3964 ;;  b               4    2[COMMON] long 
  3965 ;;  a               4    6[COMMON] long 
  3966 ;; Auto vars:     Size  Location     Type
  3967 ;;  grs             1   11[BANK0 ] unsigned char 
  3968 ;;  bexp            1   10[BANK0 ] unsigned char 
  3969 ;;  aexp            1    9[BANK0 ] unsigned char 
  3970 ;;  signs           1    8[BANK0 ] unsigned char 
  3971 ;; Return value:  Size  Location     Type
  3972 ;;                  4    2[COMMON] unsigned char 
  3973 ;; Registers used:
  3974 ;;		wreg, status,2, status,0, btemp+1
  3975 ;; Tracked objects:
  3976 ;;		On entry : 0/0
  3977 ;;		On exit  : 0/0
  3978 ;;		Unchanged: 0/0
  3979 ;; Data sizes:     COMMON   BANK0   BANK1   BANK3   BANK2
  3980 ;;      Params:         8       0       0       0       0
  3981 ;;      Locals:         0       4       0       0       0
  3982 ;;      Temps:          0       8       0       0       0
  3983 ;;      Totals:         8      12       0       0       0
  3984 ;;Total ram usage:       20 bytes
  3985 ;; Hardware stack levels used:    1
  3986 ;; Hardware stack levels required when called:    1
  3987 ;; This function calls:
  3988 ;;		Nothing
  3989 ;; This function is called by:
  3990 ;;		___flsub
  3991 ;; This function uses a non-reentrant model
  3992 ;;
  3993                           
  3994                           
  3995                           ;psect for function ___fladd
  3996  0D78                     ___fladd:
  3997  0D78                     l1968:	
  3998                           ;incstack = 0
  3999                           ; Regs used in ___fladd: [wreg+status,2+status,0+btemp+1]
  4000                           
  4001  0D78  0875               	movf	___fladd@b+3,w
  4002  0D79  3980               	andlw	128
  4003  0D7A  1283               	bcf	3,5	;RP0=0, select bank0
  4004  0D7B  1303               	bcf	3,6	;RP1=0, select bank0
  4005  0D7C  00A0               	movwf	??___fladd
  4006  0D7D  0820               	movf	??___fladd,w
  4007  0D7E  00A8               	movwf	___fladd@signs
  4008  0D7F                     l1970:
  4009  0D7F  0875               	movf	___fladd@b+3,w
  4010  0D80  00A0               	movwf	??___fladd
  4011  0D81  0720               	addwf	??___fladd,w
  4012  0D82  00A1               	movwf	??___fladd+1
  4013  0D83  0821               	movf	??___fladd+1,w
  4014  0D84  00AA               	movwf	___fladd@bexp
  4015  0D85                     l1972:
  4016  0D85  1FF4               	btfss	___fladd@b+2,7
  4017  0D86  2D88               	goto	u1901
  4018  0D87  2D89               	goto	u1900
  4019  0D88                     u1901:
  4020  0D88  2D8A               	goto	l1976
  4021  0D89                     u1900:
  4022  0D89                     l1974:
  4023  0D89  142A               	bsf	___fladd@bexp,0
  4024  0D8A                     l1976:
  4025  0D8A  082A               	movf	___fladd@bexp,w
  4026  0D8B  1903               	btfsc	3,2
  4027  0D8C  2D8E               	goto	u1911
  4028  0D8D  2D8F               	goto	u1910
  4029  0D8E                     u1911:
  4030  0D8E  2D9F               	goto	l1986
  4031  0D8F                     u1910:
  4032  0D8F                     l1978:
  4033  0D8F  0A2A               	incf	___fladd@bexp,w
  4034  0D90  1D03               	btfss	3,2
  4035  0D91  2D93               	goto	u1921
  4036  0D92  2D94               	goto	u1920
  4037  0D93                     u1921:
  4038  0D93  2D9C               	goto	l1982
  4039  0D94                     u1920:
  4040  0D94                     l1980:
  4041  0D94  3000               	movlw	0
  4042  0D95  00F5               	movwf	___fladd@b+3
  4043  0D96  3000               	movlw	0
  4044  0D97  00F4               	movwf	___fladd@b+2
  4045  0D98  3000               	movlw	0
  4046  0D99  00F3               	movwf	___fladd@b+1
  4047  0D9A  3000               	movlw	0
  4048  0D9B  00F2               	movwf	___fladd@b
  4049  0D9C                     l1982:
  4050  0D9C  17F4               	bsf	___fladd@b+2,7
  4051  0D9D                     l1984:
  4052  0D9D  01F5               	clrf	___fladd@b+3
  4053  0D9E  2DA7               	goto	l1988
  4054  0D9F                     l1986:
  4055  0D9F  3000               	movlw	0
  4056  0DA0  00F5               	movwf	___fladd@b+3
  4057  0DA1  3000               	movlw	0
  4058  0DA2  00F4               	movwf	___fladd@b+2
  4059  0DA3  3000               	movlw	0
  4060  0DA4  00F3               	movwf	___fladd@b+1
  4061  0DA5  3000               	movlw	0
  4062  0DA6  00F2               	movwf	___fladd@b
  4063  0DA7                     l1988:
  4064  0DA7  0879               	movf	___fladd@a+3,w
  4065  0DA8  3980               	andlw	128
  4066  0DA9  00A0               	movwf	??___fladd
  4067  0DAA  0820               	movf	??___fladd,w
  4068  0DAB  00A9               	movwf	___fladd@aexp
  4069  0DAC                     l1990:
  4070  0DAC  0829               	movf	___fladd@aexp,w
  4071  0DAD  0628               	xorwf	___fladd@signs,w
  4072  0DAE  1903               	skipnz
  4073  0DAF  2DB1               	goto	u1931
  4074  0DB0  2DB2               	goto	u1930
  4075  0DB1                     u1931:
  4076  0DB1  2DB3               	goto	l1994
  4077  0DB2                     u1930:
  4078  0DB2                     l1992:
  4079  0DB2  1728               	bsf	___fladd@signs,6
  4080  0DB3                     l1994:
  4081  0DB3  0879               	movf	___fladd@a+3,w
  4082  0DB4  00A0               	movwf	??___fladd
  4083  0DB5  0720               	addwf	??___fladd,w
  4084  0DB6  00A1               	movwf	??___fladd+1
  4085  0DB7  0821               	movf	??___fladd+1,w
  4086  0DB8  00A9               	movwf	___fladd@aexp
  4087  0DB9                     l1996:
  4088  0DB9  1FF8               	btfss	___fladd@a+2,7
  4089  0DBA  2DBC               	goto	u1941
  4090  0DBB  2DBD               	goto	u1940
  4091  0DBC                     u1941:
  4092  0DBC  2DBE               	goto	l2000
  4093  0DBD                     u1940:
  4094  0DBD                     l1998:
  4095  0DBD  1429               	bsf	___fladd@aexp,0
  4096  0DBE                     l2000:
  4097  0DBE  0829               	movf	___fladd@aexp,w
  4098  0DBF  1903               	btfsc	3,2
  4099  0DC0  2DC2               	goto	u1951
  4100  0DC1  2DC3               	goto	u1950
  4101  0DC2                     u1951:
  4102  0DC2  2DD3               	goto	l2010
  4103  0DC3                     u1950:
  4104  0DC3                     l2002:
  4105  0DC3  0A29               	incf	___fladd@aexp,w
  4106  0DC4  1D03               	btfss	3,2
  4107  0DC5  2DC7               	goto	u1961
  4108  0DC6  2DC8               	goto	u1960
  4109  0DC7                     u1961:
  4110  0DC7  2DD0               	goto	l2006
  4111  0DC8                     u1960:
  4112  0DC8                     l2004:
  4113  0DC8  3000               	movlw	0
  4114  0DC9  00F9               	movwf	___fladd@a+3
  4115  0DCA  3000               	movlw	0
  4116  0DCB  00F8               	movwf	___fladd@a+2
  4117  0DCC  3000               	movlw	0
  4118  0DCD  00F7               	movwf	___fladd@a+1
  4119  0DCE  3000               	movlw	0
  4120  0DCF  00F6               	movwf	___fladd@a
  4121  0DD0                     l2006:
  4122  0DD0  17F8               	bsf	___fladd@a+2,7
  4123  0DD1                     l2008:
  4124  0DD1  01F9               	clrf	___fladd@a+3
  4125  0DD2  2DDB               	goto	l645
  4126  0DD3                     l2010:
  4127  0DD3  3000               	movlw	0
  4128  0DD4  00F9               	movwf	___fladd@a+3
  4129  0DD5  3000               	movlw	0
  4130  0DD6  00F8               	movwf	___fladd@a+2
  4131  0DD7  3000               	movlw	0
  4132  0DD8  00F7               	movwf	___fladd@a+1
  4133  0DD9  3000               	movlw	0
  4134  0DDA  00F6               	movwf	___fladd@a
  4135  0DDB                     l645:
  4136  0DDB  082A               	movf	___fladd@bexp,w
  4137  0DDC  0229               	subwf	___fladd@aexp,w
  4138  0DDD  1803               	skipnc
  4139  0DDE  2DE0               	goto	u1971
  4140  0DDF  2DE1               	goto	u1970
  4141  0DE0                     u1971:
  4142  0DE0  2E25               	goto	l2046
  4143  0DE1                     u1970:
  4144  0DE1                     l2012:
  4145  0DE1  1F28               	btfss	___fladd@signs,6
  4146  0DE2  2DE4               	goto	u1981
  4147  0DE3  2DE5               	goto	u1980
  4148  0DE4                     u1981:
  4149  0DE4  2DE9               	goto	l2016
  4150  0DE5                     u1980:
  4151  0DE5                     l2014:
  4152  0DE5  3080               	movlw	128
  4153  0DE6  00A0               	movwf	??___fladd
  4154  0DE7  0820               	movf	??___fladd,w
  4155  0DE8  06A8               	xorwf	___fladd@signs,f
  4156  0DE9                     l2016:
  4157  0DE9  082A               	movf	___fladd@bexp,w
  4158  0DEA  00A0               	movwf	??___fladd
  4159  0DEB  0820               	movf	??___fladd,w
  4160  0DEC  00AB               	movwf	___fladd@grs
  4161  0DED                     l2018:
  4162  0DED  0829               	movf	___fladd@aexp,w
  4163  0DEE  00A0               	movwf	??___fladd
  4164  0DEF  0820               	movf	??___fladd,w
  4165  0DF0  00AA               	movwf	___fladd@bexp
  4166  0DF1                     l2020:
  4167  0DF1  082B               	movf	___fladd@grs,w
  4168  0DF2  00A0               	movwf	??___fladd
  4169  0DF3  0820               	movf	??___fladd,w
  4170  0DF4  00A9               	movwf	___fladd@aexp
  4171  0DF5                     l2022:
  4172  0DF5  0872               	movf	___fladd@b,w
  4173  0DF6  00A0               	movwf	??___fladd
  4174  0DF7  0820               	movf	??___fladd,w
  4175  0DF8  00AB               	movwf	___fladd@grs
  4176  0DF9                     l2024:
  4177  0DF9  0876               	movf	___fladd@a,w
  4178  0DFA  00A0               	movwf	??___fladd
  4179  0DFB  0820               	movf	??___fladd,w
  4180  0DFC  00F2               	movwf	___fladd@b
  4181  0DFD                     l2026:
  4182  0DFD  082B               	movf	___fladd@grs,w
  4183  0DFE  00A0               	movwf	??___fladd
  4184  0DFF  0820               	movf	??___fladd,w
  4185  0E00  00F6               	movwf	___fladd@a
  4186  0E01                     l2028:
  4187  0E01  0873               	movf	___fladd@b+1,w
  4188  0E02  00A0               	movwf	??___fladd
  4189  0E03  0820               	movf	??___fladd,w
  4190  0E04  00AB               	movwf	___fladd@grs
  4191  0E05                     l2030:
  4192  0E05  0877               	movf	___fladd@a+1,w
  4193  0E06  00A0               	movwf	??___fladd
  4194  0E07  0820               	movf	??___fladd,w
  4195  0E08  00F3               	movwf	___fladd@b+1
  4196  0E09                     l2032:
  4197  0E09  082B               	movf	___fladd@grs,w
  4198  0E0A  00A0               	movwf	??___fladd
  4199  0E0B  0820               	movf	??___fladd,w
  4200  0E0C  00F7               	movwf	___fladd@a+1
  4201  0E0D                     l2034:
  4202  0E0D  0874               	movf	___fladd@b+2,w
  4203  0E0E  00A0               	movwf	??___fladd
  4204  0E0F  0820               	movf	??___fladd,w
  4205  0E10  00AB               	movwf	___fladd@grs
  4206  0E11                     l2036:
  4207  0E11  0878               	movf	___fladd@a+2,w
  4208  0E12  00A0               	movwf	??___fladd
  4209  0E13  0820               	movf	??___fladd,w
  4210  0E14  00F4               	movwf	___fladd@b+2
  4211  0E15                     l2038:
  4212  0E15  082B               	movf	___fladd@grs,w
  4213  0E16  00A0               	movwf	??___fladd
  4214  0E17  0820               	movf	??___fladd,w
  4215  0E18  00F8               	movwf	___fladd@a+2
  4216  0E19                     l2040:
  4217  0E19  0875               	movf	___fladd@b+3,w
  4218  0E1A  00A0               	movwf	??___fladd
  4219  0E1B  0820               	movf	??___fladd,w
  4220  0E1C  00AB               	movwf	___fladd@grs
  4221  0E1D                     l2042:
  4222  0E1D  0879               	movf	___fladd@a+3,w
  4223  0E1E  00A0               	movwf	??___fladd
  4224  0E1F  0820               	movf	??___fladd,w
  4225  0E20  00F5               	movwf	___fladd@b+3
  4226  0E21                     l2044:
  4227  0E21  082B               	movf	___fladd@grs,w
  4228  0E22  00A0               	movwf	??___fladd
  4229  0E23  0820               	movf	??___fladd,w
  4230  0E24  00F9               	movwf	___fladd@a+3
  4231  0E25                     l2046:
  4232  0E25  01AB               	clrf	___fladd@grs
  4233  0E26                     l2048:
  4234  0E26  0829               	movf	___fladd@aexp,w
  4235  0E27  00A0               	movwf	??___fladd
  4236  0E28  01A1               	clrf	??___fladd+1
  4237  0E29  0821               	movf	??___fladd+1,w
  4238  0E2A  00A3               	movwf	??___fladd+3
  4239  0E2B  082A               	movf	___fladd@bexp,w
  4240  0E2C  0220               	subwf	??___fladd,w
  4241  0E2D  00A2               	movwf	??___fladd+2
  4242  0E2E  1C03               	skipc
  4243  0E2F  03A3               	decf	??___fladd+3,f
  4244  0E30  0823               	movf	??___fladd+3,w
  4245  0E31  3A80               	xorlw	128
  4246  0E32  00FF               	movwf	btemp+1
  4247  0E33  3080               	movlw	128
  4248  0E34  027F               	subwf	btemp+1,w
  4249  0E35  1D03               	skipz
  4250  0E36  2E39               	goto	u1995
  4251  0E37  301A               	movlw	26
  4252  0E38  0222               	subwf	??___fladd+2,w
  4253  0E39                     u1995:
  4254  0E39  1C03               	skipc
  4255  0E3A  2E3C               	goto	u1991
  4256  0E3B  2E3D               	goto	u1990
  4257  0E3C                     u1991:
  4258  0E3C  2E7A               	goto	l2064
  4259  0E3D                     u1990:
  4260  0E3D                     l2050:
  4261  0E3D  0875               	movf	___fladd@b+3,w
  4262  0E3E  0474               	iorwf	___fladd@b+2,w
  4263  0E3F  0473               	iorwf	___fladd@b+1,w
  4264  0E40  0472               	iorwf	___fladd@b,w
  4265  0E41  1D03               	skipz
  4266  0E42  2E44               	goto	u2001
  4267  0E43  2E46               	goto	u2000
  4268  0E44                     u2001:
  4269  0E44  3001               	movlw	1
  4270  0E45  2E47               	goto	u2010
  4271  0E46                     u2000:
  4272  0E46  3000               	movlw	0
  4273  0E47                     u2010:
  4274  0E47  1283               	bcf	3,5	;RP0=0, select bank0
  4275  0E48  1303               	bcf	3,6	;RP1=0, select bank0
  4276  0E49  00A0               	movwf	??___fladd
  4277  0E4A  0820               	movf	??___fladd,w
  4278  0E4B  00AB               	movwf	___fladd@grs
  4279  0E4C  3000               	movlw	0
  4280  0E4D  00F5               	movwf	___fladd@b+3
  4281  0E4E  3000               	movlw	0
  4282  0E4F  00F4               	movwf	___fladd@b+2
  4283  0E50  3000               	movlw	0
  4284  0E51  00F3               	movwf	___fladd@b+1
  4285  0E52  3000               	movlw	0
  4286  0E53  00F2               	movwf	___fladd@b
  4287  0E54  0829               	movf	___fladd@aexp,w
  4288  0E55  00A0               	movwf	??___fladd
  4289  0E56  0820               	movf	??___fladd,w
  4290  0E57  00AA               	movwf	___fladd@bexp
  4291  0E58  2E82               	goto	l649
  4292  0E59                     l651:
  4293  0E59  1C2B               	btfss	___fladd@grs,0
  4294  0E5A  2E5C               	goto	u2021
  4295  0E5B  2E5D               	goto	u2020
  4296  0E5C                     u2021:
  4297  0E5C  2E66               	goto	l2054
  4298  0E5D                     u2020:
  4299  0E5D                     l2052:
  4300  0E5D  082B               	movf	___fladd@grs,w
  4301  0E5E  00A0               	movwf	??___fladd
  4302  0E5F  1003               	clrc
  4303  0E60  0C20               	rrf	??___fladd,w
  4304  0E61  3801               	iorlw	1
  4305  0E62  00A1               	movwf	??___fladd+1
  4306  0E63  0821               	movf	??___fladd+1,w
  4307  0E64  00AB               	movwf	___fladd@grs
  4308  0E65  2E68               	goto	l2056
  4309  0E66                     l2054:
  4310  0E66  1003               	clrc
  4311  0E67  0CAB               	rrf	___fladd@grs,f
  4312  0E68                     l2056:
  4313  0E68  1C72               	btfss	___fladd@b,0
  4314  0E69  2E6B               	goto	u2031
  4315  0E6A  2E6C               	goto	u2030
  4316  0E6B                     u2031:
  4317  0E6B  2E6D               	goto	l2060
  4318  0E6C                     u2030:
  4319  0E6C                     l2058:
  4320  0E6C  17AB               	bsf	___fladd@grs,7
  4321  0E6D                     l2060:
  4322  0E6D  3001               	movlw	1
  4323  0E6E  00A0               	movwf	??___fladd
  4324  0E6F                     u2045:
  4325  0E6F  0D75               	rlf	___fladd@b+3,w
  4326  0E70  0CF5               	rrf	___fladd@b+3,f
  4327  0E71  0CF4               	rrf	___fladd@b+2,f
  4328  0E72  0CF3               	rrf	___fladd@b+1,f
  4329  0E73  0CF2               	rrf	___fladd@b,f
  4330  0E74  0BA0               	decfsz	??___fladd& (0+127),f
  4331  0E75  2E6F               	goto	u2045
  4332  0E76                     l2062:
  4333  0E76  3001               	movlw	1
  4334  0E77  00A0               	movwf	??___fladd
  4335  0E78  0820               	movf	??___fladd,w
  4336  0E79  07AA               	addwf	___fladd@bexp,f
  4337  0E7A                     l2064:
  4338  0E7A  1283               	bcf	3,5	;RP0=0, select bank0
  4339  0E7B  1303               	bcf	3,6	;RP1=0, select bank0
  4340  0E7C  0829               	movf	___fladd@aexp,w
  4341  0E7D  022A               	subwf	___fladd@bexp,w
  4342  0E7E  1C03               	skipc
  4343  0E7F  2E81               	goto	u2051
  4344  0E80  2E82               	goto	u2050
  4345  0E81                     u2051:
  4346  0E81  2E59               	goto	l651
  4347  0E82                     u2050:
  4348  0E82                     l649:
  4349  0E82  1B28               	btfsc	___fladd@signs,6
  4350  0E83  2E85               	goto	u2061
  4351  0E84  2E86               	goto	u2060
  4352  0E85                     u2061:
  4353  0E85  2ED1               	goto	l2090
  4354  0E86                     u2060:
  4355  0E86                     l2066:
  4356  0E86  082A               	movf	___fladd@bexp,w
  4357  0E87  1D03               	btfss	3,2
  4358  0E88  2E8A               	goto	u2071
  4359  0E89  2E8B               	goto	u2070
  4360  0E8A                     u2071:
  4361  0E8A  2E94               	goto	l2072
  4362  0E8B                     u2070:
  4363  0E8B                     l2068:
  4364  0E8B  3000               	movlw	0
  4365  0E8C  00F5               	movwf	?___fladd+3
  4366  0E8D  3000               	movlw	0
  4367  0E8E  00F4               	movwf	?___fladd+2
  4368  0E8F  3000               	movlw	0
  4369  0E90  00F3               	movwf	?___fladd+1
  4370  0E91  3000               	movlw	0
  4371  0E92  00F2               	movwf	?___fladd
  4372  0E93  2FFF               	goto	l658
  4373  0E94                     l2072:
  4374  0E94  0876               	movf	___fladd@a,w
  4375  0E95  07F2               	addwf	___fladd@b,f
  4376  0E96  0877               	movf	___fladd@a+1,w
  4377  0E97  1103               	clrz
  4378  0E98  1803               	skipnc
  4379  0E99  3E01               	addlw	1
  4380  0E9A  1903               	skipnz
  4381  0E9B  2E9D               	goto	u2081
  4382  0E9C  07F3               	addwf	___fladd@b+1,f
  4383  0E9D                     u2081:
  4384  0E9D  0878               	movf	___fladd@a+2,w
  4385  0E9E  1103               	clrz
  4386  0E9F  1803               	skipnc
  4387  0EA0  3E01               	addlw	1
  4388  0EA1  1903               	skipnz
  4389  0EA2  2EA4               	goto	u2082
  4390  0EA3  07F4               	addwf	___fladd@b+2,f
  4391  0EA4                     u2082:
  4392  0EA4  0879               	movf	___fladd@a+3,w
  4393  0EA5  1103               	clrz
  4394  0EA6  1803               	skipnc
  4395  0EA7  3E01               	addlw	1
  4396  0EA8  1903               	skipnz
  4397  0EA9  2EAB               	goto	u2083
  4398  0EAA  07F5               	addwf	___fladd@b+3,f
  4399  0EAB                     u2083:
  4400  0EAB                     l2074:
  4401  0EAB  1C75               	btfss	___fladd@b+3,0
  4402  0EAC  2EAE               	goto	u2091
  4403  0EAD  2EAF               	goto	u2090
  4404  0EAE                     u2091:
  4405  0EAE  2F85               	goto	l2124
  4406  0EAF                     u2090:
  4407  0EAF                     l2076:
  4408  0EAF  1C2B               	btfss	___fladd@grs,0
  4409  0EB0  2EB2               	goto	u2101
  4410  0EB1  2EB3               	goto	u2100
  4411  0EB2                     u2101:
  4412  0EB2  2EBC               	goto	l2080
  4413  0EB3                     u2100:
  4414  0EB3                     l2078:
  4415  0EB3  082B               	movf	___fladd@grs,w
  4416  0EB4  00A0               	movwf	??___fladd
  4417  0EB5  1003               	clrc
  4418  0EB6  0C20               	rrf	??___fladd,w
  4419  0EB7  3801               	iorlw	1
  4420  0EB8  00A1               	movwf	??___fladd+1
  4421  0EB9  0821               	movf	??___fladd+1,w
  4422  0EBA  00AB               	movwf	___fladd@grs
  4423  0EBB  2EBE               	goto	l2082
  4424  0EBC                     l2080:
  4425  0EBC  1003               	clrc
  4426  0EBD  0CAB               	rrf	___fladd@grs,f
  4427  0EBE                     l2082:
  4428  0EBE  1C72               	btfss	___fladd@b,0
  4429  0EBF  2EC1               	goto	u2111
  4430  0EC0  2EC2               	goto	u2110
  4431  0EC1                     u2111:
  4432  0EC1  2EC3               	goto	l2086
  4433  0EC2                     u2110:
  4434  0EC2                     l2084:
  4435  0EC2  17AB               	bsf	___fladd@grs,7
  4436  0EC3                     l2086:
  4437  0EC3  3001               	movlw	1
  4438  0EC4  00A0               	movwf	??___fladd
  4439  0EC5                     u2125:
  4440  0EC5  0D75               	rlf	___fladd@b+3,w
  4441  0EC6  0CF5               	rrf	___fladd@b+3,f
  4442  0EC7  0CF4               	rrf	___fladd@b+2,f
  4443  0EC8  0CF3               	rrf	___fladd@b+1,f
  4444  0EC9  0CF2               	rrf	___fladd@b,f
  4445  0ECA  0BA0               	decfsz	??___fladd& (0+127),f
  4446  0ECB  2EC5               	goto	u2125
  4447  0ECC                     l2088:
  4448  0ECC  3001               	movlw	1
  4449  0ECD  00A0               	movwf	??___fladd
  4450  0ECE  0820               	movf	??___fladd,w
  4451  0ECF  07AA               	addwf	___fladd@bexp,f
  4452  0ED0  2F85               	goto	l2124
  4453  0ED1                     l2090:
  4454  0ED1  0875               	movf	___fladd@b+3,w
  4455  0ED2  3A80               	xorlw	128
  4456  0ED3  00FF               	movwf	btemp+1
  4457  0ED4  0879               	movf	___fladd@a+3,w
  4458  0ED5  3A80               	xorlw	128
  4459  0ED6  027F               	subwf	btemp+1,w
  4460  0ED7  1D03               	skipz
  4461  0ED8  2EE3               	goto	u2133
  4462  0ED9  0878               	movf	___fladd@a+2,w
  4463  0EDA  0274               	subwf	___fladd@b+2,w
  4464  0EDB  1D03               	skipz
  4465  0EDC  2EE3               	goto	u2133
  4466  0EDD  0877               	movf	___fladd@a+1,w
  4467  0EDE  0273               	subwf	___fladd@b+1,w
  4468  0EDF  1D03               	skipz
  4469  0EE0  2EE3               	goto	u2133
  4470  0EE1  0876               	movf	___fladd@a,w
  4471  0EE2  0272               	subwf	___fladd@b,w
  4472  0EE3                     u2133:
  4473  0EE3  1803               	skipnc
  4474  0EE4  2EE6               	goto	u2131
  4475  0EE5  2EE7               	goto	u2130
  4476  0EE6                     u2131:
  4477  0EE6  2F3F               	goto	l2100
  4478  0EE7                     u2130:
  4479  0EE7                     l2092:
  4480  0EE7  30FF               	movlw	255
  4481  0EE8  00A0               	movwf	??___fladd
  4482  0EE9  30FF               	movlw	255
  4483  0EEA  00A1               	movwf	??___fladd+1
  4484  0EEB  30FF               	movlw	255
  4485  0EEC  00A2               	movwf	??___fladd+2
  4486  0EED  30FF               	movlw	255
  4487  0EEE  00A3               	movwf	??___fladd+3
  4488  0EEF  0876               	movf	___fladd@a,w
  4489  0EF0  00A4               	movwf	??___fladd+4
  4490  0EF1  0877               	movf	___fladd@a+1,w
  4491  0EF2  00A5               	movwf	??___fladd+5
  4492  0EF3  0878               	movf	___fladd@a+2,w
  4493  0EF4  00A6               	movwf	??___fladd+6
  4494  0EF5  0879               	movf	___fladd@a+3,w
  4495  0EF6  00A7               	movwf	??___fladd+7
  4496  0EF7  0872               	movf	___fladd@b,w
  4497  0EF8  02A4               	subwf	??___fladd+4,f
  4498  0EF9  0873               	movf	___fladd@b+1,w
  4499  0EFA  1C03               	skipc
  4500  0EFB  0F73               	incfsz	___fladd@b+1,w
  4501  0EFC  2EFE               	goto	u2141
  4502  0EFD  2EFF               	goto	u2142
  4503  0EFE                     u2141:
  4504  0EFE  02A5               	subwf	??___fladd+5,f
  4505  0EFF                     u2142:
  4506  0EFF  0874               	movf	___fladd@b+2,w
  4507  0F00  1C03               	skipc
  4508  0F01  0F74               	incfsz	___fladd@b+2,w
  4509  0F02  2F04               	goto	u2143
  4510  0F03  2F05               	goto	u2144
  4511  0F04                     u2143:
  4512  0F04  02A6               	subwf	??___fladd+6,f
  4513  0F05                     u2144:
  4514  0F05  0875               	movf	___fladd@b+3,w
  4515  0F06  1C03               	skipc
  4516  0F07  0F75               	incfsz	___fladd@b+3,w
  4517  0F08  2F0A               	goto	u2145
  4518  0F09  2F0B               	goto	u2146
  4519  0F0A                     u2145:
  4520  0F0A  02A7               	subwf	??___fladd+7,f
  4521  0F0B                     u2146:
  4522  0F0B  0824               	movf	??___fladd+4,w
  4523  0F0C  07A0               	addwf	??___fladd,f
  4524  0F0D  0825               	movf	??___fladd+5,w
  4525  0F0E  1803               	skipnc
  4526  0F0F  0F25               	incfsz	??___fladd+5,w
  4527  0F10  2F12               	goto	u2150
  4528  0F11  2F13               	goto	u2151
  4529  0F12                     u2150:
  4530  0F12  07A1               	addwf	??___fladd+1,f
  4531  0F13                     u2151:
  4532  0F13  0826               	movf	??___fladd+6,w
  4533  0F14  1803               	skipnc
  4534  0F15  0F26               	incfsz	??___fladd+6,w
  4535  0F16  2F18               	goto	u2152
  4536  0F17  2F19               	goto	u2153
  4537  0F18                     u2152:
  4538  0F18  07A2               	addwf	??___fladd+2,f
  4539  0F19                     u2153:
  4540  0F19  0827               	movf	??___fladd+7,w
  4541  0F1A  1803               	skipnc
  4542  0F1B  0A27               	incf	??___fladd+7,w
  4543  0F1C  07A3               	addwf	??___fladd+3,f
  4544  0F1D  0823               	movf	??___fladd+3,w
  4545  0F1E  00F5               	movwf	___fladd@b+3
  4546  0F1F  0822               	movf	??___fladd+2,w
  4547  0F20  00F4               	movwf	___fladd@b+2
  4548  0F21  0821               	movf	??___fladd+1,w
  4549  0F22  00F3               	movwf	___fladd@b+1
  4550  0F23  0820               	movf	??___fladd,w
  4551  0F24  00F2               	movwf	___fladd@b
  4552  0F25                     l2094:
  4553  0F25  3080               	movlw	128
  4554  0F26  00A0               	movwf	??___fladd
  4555  0F27  0820               	movf	??___fladd,w
  4556  0F28  06A8               	xorwf	___fladd@signs,f
  4557  0F29  09AB               	comf	___fladd@grs,f
  4558  0F2A  0AAB               	incf	___fladd@grs,f
  4559  0F2B                     l2096:
  4560  0F2B  082B               	movf	___fladd@grs,w
  4561  0F2C  1D03               	btfss	3,2
  4562  0F2D  2F2F               	goto	u2161
  4563  0F2E  2F30               	goto	u2160
  4564  0F2F                     u2161:
  4565  0F2F  2F4D               	goto	l666
  4566  0F30                     u2160:
  4567  0F30                     l2098:
  4568  0F30  3001               	movlw	1
  4569  0F31  07F2               	addwf	___fladd@b,f
  4570  0F32  3000               	movlw	0
  4571  0F33  1803               	skipnc
  4572  0F34  3001               	movlw	1
  4573  0F35  07F3               	addwf	___fladd@b+1,f
  4574  0F36  3000               	movlw	0
  4575  0F37  1803               	skipnc
  4576  0F38  3001               	movlw	1
  4577  0F39  07F4               	addwf	___fladd@b+2,f
  4578  0F3A  3000               	movlw	0
  4579  0F3B  1803               	skipnc
  4580  0F3C  3001               	movlw	1
  4581  0F3D  07F5               	addwf	___fladd@b+3,f
  4582  0F3E  2F4D               	goto	l666
  4583  0F3F                     l2100:
  4584  0F3F  0876               	movf	___fladd@a,w
  4585  0F40  02F2               	subwf	___fladd@b,f
  4586  0F41  0877               	movf	___fladd@a+1,w
  4587  0F42  1C03               	skipc
  4588  0F43  0F77               	incfsz	___fladd@a+1,w
  4589  0F44  02F3               	subwf	___fladd@b+1,f
  4590  0F45  0878               	movf	___fladd@a+2,w
  4591  0F46  1C03               	skipc
  4592  0F47  0F78               	incfsz	___fladd@a+2,w
  4593  0F48  02F4               	subwf	___fladd@b+2,f
  4594  0F49  0879               	movf	___fladd@a+3,w
  4595  0F4A  1C03               	skipc
  4596  0F4B  0F79               	incfsz	___fladd@a+3,w
  4597  0F4C  02F5               	subwf	___fladd@b+3,f
  4598  0F4D                     l666:
  4599  0F4D  0875               	movf	___fladd@b+3,w
  4600  0F4E  0474               	iorwf	___fladd@b+2,w
  4601  0F4F  0473               	iorwf	___fladd@b+1,w
  4602  0F50  0472               	iorwf	___fladd@b,w
  4603  0F51  1D03               	skipz
  4604  0F52  2F54               	goto	u2171
  4605  0F53  2F55               	goto	u2170
  4606  0F54                     u2171:
  4607  0F54  2F81               	goto	l2122
  4608  0F55                     u2170:
  4609  0F55                     l2102:
  4610  0F55  082B               	movf	___fladd@grs,w
  4611  0F56  1D03               	btfss	3,2
  4612  0F57  2F59               	goto	u2181
  4613  0F58  2F5A               	goto	u2180
  4614  0F59                     u2181:
  4615  0F59  2F81               	goto	l2122
  4616  0F5A                     u2180:
  4617  0F5A                     l2104:
  4618  0F5A  3000               	movlw	0
  4619  0F5B  00F5               	movwf	?___fladd+3
  4620  0F5C  3000               	movlw	0
  4621  0F5D  00F4               	movwf	?___fladd+2
  4622  0F5E  3000               	movlw	0
  4623  0F5F  00F3               	movwf	?___fladd+1
  4624  0F60  3000               	movlw	0
  4625  0F61  00F2               	movwf	?___fladd
  4626  0F62  2FFF               	goto	l658
  4627  0F63                     l2108:
  4628  0F63  3001               	movlw	1
  4629  0F64  00A0               	movwf	??___fladd
  4630  0F65                     u2195:
  4631  0F65  1003               	clrc
  4632  0F66  0DF2               	rlf	___fladd@b,f
  4633  0F67  0DF3               	rlf	___fladd@b+1,f
  4634  0F68  0DF4               	rlf	___fladd@b+2,f
  4635  0F69  0DF5               	rlf	___fladd@b+3,f
  4636  0F6A  0BA0               	decfsz	??___fladd,f
  4637  0F6B  2F65               	goto	u2195
  4638  0F6C                     l2110:
  4639  0F6C  1FAB               	btfss	___fladd@grs,7
  4640  0F6D  2F6F               	goto	u2201
  4641  0F6E  2F70               	goto	u2200
  4642  0F6F                     u2201:
  4643  0F6F  2F71               	goto	l670
  4644  0F70                     u2200:
  4645  0F70                     l2112:
  4646  0F70  1472               	bsf	___fladd@b,0
  4647  0F71                     l670:
  4648  0F71  1C2B               	btfss	___fladd@grs,0
  4649  0F72  2F74               	goto	u2211
  4650  0F73  2F75               	goto	u2210
  4651  0F74                     u2211:
  4652  0F74  2F78               	goto	l2116
  4653  0F75                     u2210:
  4654  0F75                     l2114:
  4655  0F75  1403               	setc
  4656  0F76  0DAB               	rlf	___fladd@grs,f
  4657  0F77  2F7A               	goto	l2118
  4658  0F78                     l2116:
  4659  0F78  1003               	clrc
  4660  0F79  0DAB               	rlf	___fladd@grs,f
  4661  0F7A                     l2118:
  4662  0F7A  082A               	movf	___fladd@bexp,w
  4663  0F7B  1903               	btfsc	3,2
  4664  0F7C  2F7E               	goto	u2221
  4665  0F7D  2F7F               	goto	u2220
  4666  0F7E                     u2221:
  4667  0F7E  2F81               	goto	l2122
  4668  0F7F                     u2220:
  4669  0F7F                     l2120:
  4670  0F7F  3001               	movlw	1
  4671  0F80  02AA               	subwf	___fladd@bexp,f
  4672  0F81                     l2122:
  4673  0F81  1FF4               	btfss	___fladd@b+2,7
  4674  0F82  2F84               	goto	u2231
  4675  0F83  2F85               	goto	u2230
  4676  0F84                     u2231:
  4677  0F84  2F63               	goto	l2108
  4678  0F85                     u2230:
  4679  0F85                     l2124:
  4680  0F85  01A9               	clrf	___fladd@aexp
  4681  0F86                     l2126:
  4682  0F86  1FAB               	btfss	___fladd@grs,7
  4683  0F87  2F89               	goto	u2241
  4684  0F88  2F8A               	goto	u2240
  4685  0F89                     u2241:
  4686  0F89  2F98               	goto	l2134
  4687  0F8A                     u2240:
  4688  0F8A                     l2128:
  4689  0F8A  082B               	movf	___fladd@grs,w
  4690  0F8B  397F               	andlw	127
  4691  0F8C  1903               	btfsc	3,2
  4692  0F8D  2F8F               	goto	u2251
  4693  0F8E  2F90               	goto	u2250
  4694  0F8F                     u2251:
  4695  0F8F  2F93               	goto	l676
  4696  0F90                     u2250:
  4697  0F90                     l2130:
  4698  0F90  01A9               	clrf	___fladd@aexp
  4699  0F91  0AA9               	incf	___fladd@aexp,f
  4700  0F92  2F98               	goto	l2134
  4701  0F93                     l676:
  4702  0F93  1C72               	btfss	___fladd@b,0
  4703  0F94  2F96               	goto	u2261
  4704  0F95  2F97               	goto	u2260
  4705  0F96                     u2261:
  4706  0F96  2F98               	goto	l2134
  4707  0F97                     u2260:
  4708  0F97  2F90               	goto	l2130
  4709  0F98                     l2134:
  4710  0F98  0829               	movf	___fladd@aexp,w
  4711  0F99  1903               	btfsc	3,2
  4712  0F9A  2F9C               	goto	u2271
  4713  0F9B  2F9D               	goto	u2270
  4714  0F9C                     u2271:
  4715  0F9C  2FD1               	goto	l679
  4716  0F9D                     u2270:
  4717  0F9D                     l2136:
  4718  0F9D  3001               	movlw	1
  4719  0F9E  07F2               	addwf	___fladd@b,f
  4720  0F9F  3000               	movlw	0
  4721  0FA0  1803               	skipnc
  4722  0FA1  3001               	movlw	1
  4723  0FA2  07F3               	addwf	___fladd@b+1,f
  4724  0FA3  3000               	movlw	0
  4725  0FA4  1803               	skipnc
  4726  0FA5  3001               	movlw	1
  4727  0FA6  07F4               	addwf	___fladd@b+2,f
  4728  0FA7  3000               	movlw	0
  4729  0FA8  1803               	skipnc
  4730  0FA9  3001               	movlw	1
  4731  0FAA  07F5               	addwf	___fladd@b+3,f
  4732  0FAB                     l2138:
  4733  0FAB  1C75               	btfss	___fladd@b+3,0
  4734  0FAC  2FAE               	goto	u2281
  4735  0FAD  2FAF               	goto	u2280
  4736  0FAE                     u2281:
  4737  0FAE  2FD1               	goto	l679
  4738  0FAF                     u2280:
  4739  0FAF                     l2140:
  4740  0FAF  0872               	movf	___fladd@b,w
  4741  0FB0  00A0               	movwf	??___fladd
  4742  0FB1  0873               	movf	___fladd@b+1,w
  4743  0FB2  00A1               	movwf	??___fladd+1
  4744  0FB3  0874               	movf	___fladd@b+2,w
  4745  0FB4  00A2               	movwf	??___fladd+2
  4746  0FB5  0875               	movf	___fladd@b+3,w
  4747  0FB6  00A3               	movwf	??___fladd+3
  4748  0FB7  3001               	movlw	1
  4749  0FB8  00A4               	movwf	??___fladd+4
  4750  0FB9                     u2295:
  4751  0FB9  0D23               	rlf	??___fladd+3,w
  4752  0FBA  0CA3               	rrf	??___fladd+3,f
  4753  0FBB  0CA2               	rrf	??___fladd+2,f
  4754  0FBC  0CA1               	rrf	??___fladd+1,f
  4755  0FBD  0CA0               	rrf	??___fladd,f
  4756  0FBE                     u2290:
  4757  0FBE  0BA4               	decfsz	??___fladd+4,f
  4758  0FBF  2FB9               	goto	u2295
  4759  0FC0  0823               	movf	??___fladd+3,w
  4760  0FC1  00F5               	movwf	___fladd@b+3
  4761  0FC2  0822               	movf	??___fladd+2,w
  4762  0FC3  00F4               	movwf	___fladd@b+2
  4763  0FC4  0821               	movf	??___fladd+1,w
  4764  0FC5  00F3               	movwf	___fladd@b+1
  4765  0FC6  0820               	movf	??___fladd,w
  4766  0FC7  00F2               	movwf	___fladd@b
  4767  0FC8  0A2A               	incf	___fladd@bexp,w
  4768  0FC9  1903               	btfsc	3,2
  4769  0FCA  2FCC               	goto	u2301
  4770  0FCB  2FCD               	goto	u2300
  4771  0FCC                     u2301:
  4772  0FCC  2FD1               	goto	l679
  4773  0FCD                     u2300:
  4774  0FCD                     l2142:
  4775  0FCD  3001               	movlw	1
  4776  0FCE  00A0               	movwf	??___fladd
  4777  0FCF  0820               	movf	??___fladd,w
  4778  0FD0  07AA               	addwf	___fladd@bexp,f
  4779  0FD1                     l679:
  4780  0FD1  0A2A               	incf	___fladd@bexp,w
  4781  0FD2  1903               	btfsc	3,2
  4782  0FD3  2FD5               	goto	u2311
  4783  0FD4  2FD6               	goto	u2310
  4784  0FD5                     u2311:
  4785  0FD5  2FDB               	goto	l2146
  4786  0FD6                     u2310:
  4787  0FD6                     l2144:
  4788  0FD6  082A               	movf	___fladd@bexp,w
  4789  0FD7  1D03               	btfss	3,2
  4790  0FD8  2FDA               	goto	u2321
  4791  0FD9  2FDB               	goto	u2320
  4792  0FDA                     u2321:
  4793  0FDA  2FE9               	goto	l2152
  4794  0FDB                     u2320:
  4795  0FDB                     l2146:
  4796  0FDB  3000               	movlw	0
  4797  0FDC  00F5               	movwf	___fladd@b+3
  4798  0FDD  3000               	movlw	0
  4799  0FDE  00F4               	movwf	___fladd@b+2
  4800  0FDF  3000               	movlw	0
  4801  0FE0  00F3               	movwf	___fladd@b+1
  4802  0FE1  3000               	movlw	0
  4803  0FE2  00F2               	movwf	___fladd@b
  4804  0FE3                     l2148:
  4805  0FE3  082A               	movf	___fladd@bexp,w
  4806  0FE4  1D03               	btfss	3,2
  4807  0FE5  2FE7               	goto	u2331
  4808  0FE6  2FE8               	goto	u2330
  4809  0FE7                     u2331:
  4810  0FE7  2FE9               	goto	l2152
  4811  0FE8                     u2330:
  4812  0FE8                     l2150:
  4813  0FE8  01A8               	clrf	___fladd@signs
  4814  0FE9                     l2152:
  4815  0FE9  1C2A               	btfss	___fladd@bexp,0
  4816  0FEA  2FEC               	goto	u2341
  4817  0FEB  2FED               	goto	u2340
  4818  0FEC                     u2341:
  4819  0FEC  2FEF               	goto	l2156
  4820  0FED                     u2340:
  4821  0FED                     l2154:
  4822  0FED  17F4               	bsf	___fladd@b+2,7
  4823  0FEE  2FF3               	goto	l687
  4824  0FEF                     l2156:
  4825  0FEF  307F               	movlw	127
  4826  0FF0  00A0               	movwf	??___fladd
  4827  0FF1  0820               	movf	??___fladd,w
  4828  0FF2  05F4               	andwf	___fladd@b+2,f
  4829  0FF3                     l687:
  4830  0FF3  082A               	movf	___fladd@bexp,w
  4831  0FF4  00A0               	movwf	??___fladd
  4832  0FF5  1003               	clrc
  4833  0FF6  0C20               	rrf	??___fladd,w
  4834  0FF7  00A1               	movwf	??___fladd+1
  4835  0FF8  0821               	movf	??___fladd+1,w
  4836  0FF9  00F5               	movwf	___fladd@b+3
  4837  0FFA                     l2158:
  4838  0FFA  1FA8               	btfss	___fladd@signs,7
  4839  0FFB  2FFD               	goto	u2351
  4840  0FFC  2FFE               	goto	u2350
  4841  0FFD                     u2351:
  4842  0FFD  2FFF               	goto	l688
  4843  0FFE                     u2350:
  4844  0FFE                     l2160:
  4845  0FFE  17F5               	bsf	___fladd@b+3,7
  4846  0FFF                     l688:
  4847  0FFF                     l658:
  4848  0FFF  0008               	return
  4849  1000                     __end_of___fladd:
  4850                           
  4851                           	psect	text9
  4852  0480                     __ptext9:	
  4853 ;; *************** function ___flmul *****************
  4854 ;; Defined at:
  4855 ;;		line 8 in file "C:\Program Files\Microchip\xc8\v2.31\pic\sources\c90\common\sprcmul.c"
  4856 ;; Parameters:    Size  Location     Type
  4857 ;;  b               4   49[BANK0 ] unsigned char 
  4858 ;;  a               4   53[BANK0 ] unsigned char 
  4859 ;; Auto vars:     Size  Location     Type
  4860 ;;  prod            4   69[BANK0 ] struct .
  4861 ;;  grs             4   64[BANK0 ] unsigned long 
  4862 ;;  temp            2   73[BANK0 ] struct .
  4863 ;;  bexp            1   68[BANK0 ] unsigned char 
  4864 ;;  aexp            1   63[BANK0 ] unsigned char 
  4865 ;;  sign            1   62[BANK0 ] unsigned char 
  4866 ;; Return value:  Size  Location     Type
  4867 ;;                  4   49[BANK0 ] unsigned char 
  4868 ;; Registers used:
  4869 ;;		wreg, status,2, status,0, btemp+1, pclath, cstack
  4870 ;; Tracked objects:
  4871 ;;		On entry : 0/0
  4872 ;;		On exit  : 0/0
  4873 ;;		Unchanged: 0/0
  4874 ;; Data sizes:     COMMON   BANK0   BANK1   BANK3   BANK2
  4875 ;;      Params:         0       8       0       0       0
  4876 ;;      Locals:         0      13       0       0       0
  4877 ;;      Temps:          0       5       0       0       0
  4878 ;;      Totals:         0      26       0       0       0
  4879 ;;Total ram usage:       26 bytes
  4880 ;; Hardware stack levels used:    1
  4881 ;; Hardware stack levels required when called:    2
  4882 ;; This function calls:
  4883 ;;		__Umul8_16
  4884 ;; This function is called by:
  4885 ;;		_main
  4886 ;;		_convert
  4887 ;; This function uses a non-reentrant model
  4888 ;;
  4889                           
  4890                           
  4891                           ;psect for function ___flmul
  4892  0480                     ___flmul:
  4893  0480                     l3116:	
  4894                           ;incstack = 0
  4895                           ; Regs used in ___flmul: [wreg+status,2+status,0+btemp+1+pclath+cstack]
  4896                           
  4897  0480  1283               	bcf	3,5	;RP0=0, select bank0
  4898  0481  1303               	bcf	3,6	;RP1=0, select bank0
  4899  0482  0854               	movf	___flmul@b+3,w
  4900  0483  3980               	andlw	128
  4901  0484  00D9               	movwf	??___flmul
  4902  0485  0859               	movf	??___flmul,w
  4903  0486  00DE               	movwf	___flmul@sign
  4904  0487                     l3118:
  4905  0487  0854               	movf	___flmul@b+3,w
  4906  0488  00D9               	movwf	??___flmul
  4907  0489  0759               	addwf	??___flmul,w
  4908  048A  00DA               	movwf	??___flmul+1
  4909  048B  085A               	movf	??___flmul+1,w
  4910  048C  00E4               	movwf	___flmul@bexp
  4911  048D                     l3120:
  4912  048D  1FD3               	btfss	___flmul@b+2,7
  4913  048E  2C90               	goto	u3951
  4914  048F  2C91               	goto	u3950
  4915  0490                     u3951:
  4916  0490  2C92               	goto	l3124
  4917  0491                     u3950:
  4918  0491                     l3122:
  4919  0491  1464               	bsf	___flmul@bexp,0
  4920  0492                     l3124:
  4921  0492  0864               	movf	___flmul@bexp,w
  4922  0493  1903               	btfsc	3,2
  4923  0494  2C96               	goto	u3961
  4924  0495  2C97               	goto	u3960
  4925  0496                     u3961:
  4926  0496  2CA6               	goto	l3132
  4927  0497                     u3960:
  4928  0497                     l3126:
  4929  0497  0A64               	incf	___flmul@bexp,w
  4930  0498  1D03               	btfss	3,2
  4931  0499  2C9B               	goto	u3971
  4932  049A  2C9C               	goto	u3970
  4933  049B                     u3971:
  4934  049B  2CA4               	goto	l3130
  4935  049C                     u3970:
  4936  049C                     l3128:
  4937  049C  3000               	movlw	0
  4938  049D  00D4               	movwf	___flmul@b+3
  4939  049E  3000               	movlw	0
  4940  049F  00D3               	movwf	___flmul@b+2
  4941  04A0  3000               	movlw	0
  4942  04A1  00D2               	movwf	___flmul@b+1
  4943  04A2  3000               	movlw	0
  4944  04A3  00D1               	movwf	___flmul@b
  4945  04A4                     l3130:
  4946  04A4  17D3               	bsf	___flmul@b+2,7
  4947  04A5  2CAE               	goto	l3134
  4948  04A6                     l3132:
  4949  04A6  3000               	movlw	0
  4950  04A7  00D4               	movwf	___flmul@b+3
  4951  04A8  3000               	movlw	0
  4952  04A9  00D3               	movwf	___flmul@b+2
  4953  04AA  3000               	movlw	0
  4954  04AB  00D2               	movwf	___flmul@b+1
  4955  04AC  3000               	movlw	0
  4956  04AD  00D1               	movwf	___flmul@b
  4957  04AE                     l3134:
  4958  04AE  0858               	movf	___flmul@a+3,w
  4959  04AF  3980               	andlw	128
  4960  04B0  00D9               	movwf	??___flmul
  4961  04B1  0859               	movf	??___flmul,w
  4962  04B2  06DE               	xorwf	___flmul@sign,f
  4963  04B3                     l3136:
  4964  04B3  0858               	movf	___flmul@a+3,w
  4965  04B4  00D9               	movwf	??___flmul
  4966  04B5  0759               	addwf	??___flmul,w
  4967  04B6  00DA               	movwf	??___flmul+1
  4968  04B7  085A               	movf	??___flmul+1,w
  4969  04B8  00DF               	movwf	___flmul@aexp
  4970  04B9                     l3138:
  4971  04B9  1FD7               	btfss	___flmul@a+2,7
  4972  04BA  2CBC               	goto	u3981
  4973  04BB  2CBD               	goto	u3980
  4974  04BC                     u3981:
  4975  04BC  2CBE               	goto	l3142
  4976  04BD                     u3980:
  4977  04BD                     l3140:
  4978  04BD  145F               	bsf	___flmul@aexp,0
  4979  04BE                     l3142:
  4980  04BE  085F               	movf	___flmul@aexp,w
  4981  04BF  1903               	btfsc	3,2
  4982  04C0  2CC2               	goto	u3991
  4983  04C1  2CC3               	goto	u3990
  4984  04C2                     u3991:
  4985  04C2  2CD2               	goto	l3150
  4986  04C3                     u3990:
  4987  04C3                     l3144:
  4988  04C3  0A5F               	incf	___flmul@aexp,w
  4989  04C4  1D03               	btfss	3,2
  4990  04C5  2CC7               	goto	u4001
  4991  04C6  2CC8               	goto	u4000
  4992  04C7                     u4001:
  4993  04C7  2CD0               	goto	l3148
  4994  04C8                     u4000:
  4995  04C8                     l3146:
  4996  04C8  3000               	movlw	0
  4997  04C9  00D8               	movwf	___flmul@a+3
  4998  04CA  3000               	movlw	0
  4999  04CB  00D7               	movwf	___flmul@a+2
  5000  04CC  3000               	movlw	0
  5001  04CD  00D6               	movwf	___flmul@a+1
  5002  04CE  3000               	movlw	0
  5003  04CF  00D5               	movwf	___flmul@a
  5004  04D0                     l3148:
  5005  04D0  17D7               	bsf	___flmul@a+2,7
  5006  04D1  2CDA               	goto	l3152
  5007  04D2                     l3150:
  5008  04D2  3000               	movlw	0
  5009  04D3  00D8               	movwf	___flmul@a+3
  5010  04D4  3000               	movlw	0
  5011  04D5  00D7               	movwf	___flmul@a+2
  5012  04D6  3000               	movlw	0
  5013  04D7  00D6               	movwf	___flmul@a+1
  5014  04D8  3000               	movlw	0
  5015  04D9  00D5               	movwf	___flmul@a
  5016  04DA                     l3152:
  5017  04DA  085F               	movf	___flmul@aexp,w
  5018  04DB  1903               	btfsc	3,2
  5019  04DC  2CDE               	goto	u4011
  5020  04DD  2CDF               	goto	u4010
  5021  04DE                     u4011:
  5022  04DE  2CE4               	goto	l3156
  5023  04DF                     u4010:
  5024  04DF                     l3154:
  5025  04DF  0864               	movf	___flmul@bexp,w
  5026  04E0  1D03               	btfss	3,2
  5027  04E1  2CE3               	goto	u4021
  5028  04E2  2CE4               	goto	u4020
  5029  04E3                     u4021:
  5030  04E3  2CED               	goto	l3160
  5031  04E4                     u4020:
  5032  04E4                     l3156:
  5033  04E4  3000               	movlw	0
  5034  04E5  00D4               	movwf	?___flmul+3
  5035  04E6  3000               	movlw	0
  5036  04E7  00D3               	movwf	?___flmul+2
  5037  04E8  3000               	movlw	0
  5038  04E9  00D2               	movwf	?___flmul+1
  5039  04EA  3000               	movlw	0
  5040  04EB  00D1               	movwf	?___flmul
  5041  04EC  2FE0               	goto	l741
  5042  04ED                     l3160:
  5043  04ED  0851               	movf	___flmul@b,w
  5044  04EE  00D9               	movwf	??___flmul
  5045  04EF  0859               	movf	??___flmul,w
  5046  04F0  00F2               	movwf	__Umul8_16@multiplicand
  5047  04F1  0857               	movf	___flmul@a+2,w
  5048  04F2  120A  158A  2015  120A  118A  	fcall	__Umul8_16
  5049  04F7  0873               	movf	?__Umul8_16+1,w
  5050  04F8  1283               	bcf	3,5	;RP0=0, select bank0
  5051  04F9  1303               	bcf	3,6	;RP1=0, select bank0
  5052  04FA  00EA               	movwf	___flmul@temp+1
  5053  04FB  0872               	movf	?__Umul8_16,w
  5054  04FC  00E9               	movwf	___flmul@temp
  5055  04FD                     l3162:
  5056  04FD  0869               	movf	___flmul@temp,w
  5057  04FE  00D9               	movwf	??___flmul
  5058  04FF  01DA               	clrf	??___flmul+1
  5059  0500  01DB               	clrf	??___flmul+2
  5060  0501  01DC               	clrf	??___flmul+3
  5061  0502  085C               	movf	??___flmul+3,w
  5062  0503  00E3               	movwf	___flmul@grs+3
  5063  0504  085B               	movf	??___flmul+2,w
  5064  0505  00E2               	movwf	___flmul@grs+2
  5065  0506  085A               	movf	??___flmul+1,w
  5066  0507  00E1               	movwf	___flmul@grs+1
  5067  0508  0859               	movf	??___flmul,w
  5068  0509  00E0               	movwf	___flmul@grs
  5069  050A                     l3164:
  5070  050A  086A               	movf	___flmul@temp+1,w
  5071  050B  00D9               	movwf	??___flmul
  5072  050C  01DA               	clrf	??___flmul+1
  5073  050D  01DB               	clrf	??___flmul+2
  5074  050E  01DC               	clrf	??___flmul+3
  5075  050F  085C               	movf	??___flmul+3,w
  5076  0510  00E8               	movwf	___flmul@prod+3
  5077  0511  085B               	movf	??___flmul+2,w
  5078  0512  00E7               	movwf	___flmul@prod+2
  5079  0513  085A               	movf	??___flmul+1,w
  5080  0514  00E6               	movwf	___flmul@prod+1
  5081  0515  0859               	movf	??___flmul,w
  5082  0516  00E5               	movwf	___flmul@prod
  5083  0517  0852               	movf	___flmul@b+1,w
  5084  0518  00D9               	movwf	??___flmul
  5085  0519  0859               	movf	??___flmul,w
  5086  051A  00F2               	movwf	__Umul8_16@multiplicand
  5087  051B  0856               	movf	___flmul@a+1,w
  5088  051C  120A  158A  2015  120A  118A  	fcall	__Umul8_16
  5089  0521  0873               	movf	?__Umul8_16+1,w
  5090  0522  1283               	bcf	3,5	;RP0=0, select bank0
  5091  0523  1303               	bcf	3,6	;RP1=0, select bank0
  5092  0524  00EA               	movwf	___flmul@temp+1
  5093  0525  0872               	movf	?__Umul8_16,w
  5094  0526  00E9               	movwf	___flmul@temp
  5095  0527                     l3166:
  5096  0527  0869               	movf	___flmul@temp,w
  5097  0528  00D9               	movwf	??___flmul
  5098  0529  01DA               	clrf	??___flmul+1
  5099  052A  01DB               	clrf	??___flmul+2
  5100  052B  01DC               	clrf	??___flmul+3
  5101  052C  0859               	movf	??___flmul,w
  5102  052D  07E0               	addwf	___flmul@grs,f
  5103  052E  085A               	movf	??___flmul+1,w
  5104  052F  1103               	clrz
  5105  0530  1803               	skipnc
  5106  0531  3E01               	addlw	1
  5107  0532  1903               	skipnz
  5108  0533  2D35               	goto	u4031
  5109  0534  07E1               	addwf	___flmul@grs+1,f
  5110  0535                     u4031:
  5111  0535  085B               	movf	??___flmul+2,w
  5112  0536  1103               	clrz
  5113  0537  1803               	skipnc
  5114  0538  3E01               	addlw	1
  5115  0539  1903               	skipnz
  5116  053A  2D3C               	goto	u4032
  5117  053B  07E2               	addwf	___flmul@grs+2,f
  5118  053C                     u4032:
  5119  053C  085C               	movf	??___flmul+3,w
  5120  053D  1103               	clrz
  5121  053E  1803               	skipnc
  5122  053F  3E01               	addlw	1
  5123  0540  1903               	skipnz
  5124  0541  2D43               	goto	u4033
  5125  0542  07E3               	addwf	___flmul@grs+3,f
  5126  0543                     u4033:
  5127  0543                     l3168:
  5128  0543  086A               	movf	___flmul@temp+1,w
  5129  0544  00D9               	movwf	??___flmul
  5130  0545  01DA               	clrf	??___flmul+1
  5131  0546  01DB               	clrf	??___flmul+2
  5132  0547  01DC               	clrf	??___flmul+3
  5133  0548  0859               	movf	??___flmul,w
  5134  0549  07E5               	addwf	___flmul@prod,f
  5135  054A  085A               	movf	??___flmul+1,w
  5136  054B  1103               	clrz
  5137  054C  1803               	skipnc
  5138  054D  3E01               	addlw	1
  5139  054E  1903               	skipnz
  5140  054F  2D51               	goto	u4041
  5141  0550  07E6               	addwf	___flmul@prod+1,f
  5142  0551                     u4041:
  5143  0551  085B               	movf	??___flmul+2,w
  5144  0552  1103               	clrz
  5145  0553  1803               	skipnc
  5146  0554  3E01               	addlw	1
  5147  0555  1903               	skipnz
  5148  0556  2D58               	goto	u4042
  5149  0557  07E7               	addwf	___flmul@prod+2,f
  5150  0558                     u4042:
  5151  0558  085C               	movf	??___flmul+3,w
  5152  0559  1103               	clrz
  5153  055A  1803               	skipnc
  5154  055B  3E01               	addlw	1
  5155  055C  1903               	skipnz
  5156  055D  2D5F               	goto	u4043
  5157  055E  07E8               	addwf	___flmul@prod+3,f
  5158  055F                     u4043:
  5159  055F  0853               	movf	___flmul@b+2,w
  5160  0560  00D9               	movwf	??___flmul
  5161  0561  0859               	movf	??___flmul,w
  5162  0562  00F2               	movwf	__Umul8_16@multiplicand
  5163  0563  0855               	movf	___flmul@a,w
  5164  0564  120A  158A  2015  120A  118A  	fcall	__Umul8_16
  5165  0569  0873               	movf	?__Umul8_16+1,w
  5166  056A  1283               	bcf	3,5	;RP0=0, select bank0
  5167  056B  1303               	bcf	3,6	;RP1=0, select bank0
  5168  056C  00EA               	movwf	___flmul@temp+1
  5169  056D  0872               	movf	?__Umul8_16,w
  5170  056E  00E9               	movwf	___flmul@temp
  5171  056F                     l3170:
  5172  056F  0869               	movf	___flmul@temp,w
  5173  0570  00D9               	movwf	??___flmul
  5174  0571  01DA               	clrf	??___flmul+1
  5175  0572  01DB               	clrf	??___flmul+2
  5176  0573  01DC               	clrf	??___flmul+3
  5177  0574  0859               	movf	??___flmul,w
  5178  0575  07E0               	addwf	___flmul@grs,f
  5179  0576  085A               	movf	??___flmul+1,w
  5180  0577  1103               	clrz
  5181  0578  1803               	skipnc
  5182  0579  3E01               	addlw	1
  5183  057A  1903               	skipnz
  5184  057B  2D7D               	goto	u4051
  5185  057C  07E1               	addwf	___flmul@grs+1,f
  5186  057D                     u4051:
  5187  057D  085B               	movf	??___flmul+2,w
  5188  057E  1103               	clrz
  5189  057F  1803               	skipnc
  5190  0580  3E01               	addlw	1
  5191  0581  1903               	skipnz
  5192  0582  2D84               	goto	u4052
  5193  0583  07E2               	addwf	___flmul@grs+2,f
  5194  0584                     u4052:
  5195  0584  085C               	movf	??___flmul+3,w
  5196  0585  1103               	clrz
  5197  0586  1803               	skipnc
  5198  0587  3E01               	addlw	1
  5199  0588  1903               	skipnz
  5200  0589  2D8B               	goto	u4053
  5201  058A  07E3               	addwf	___flmul@grs+3,f
  5202  058B                     u4053:
  5203  058B                     l3172:
  5204  058B  086A               	movf	___flmul@temp+1,w
  5205  058C  00D9               	movwf	??___flmul
  5206  058D  01DA               	clrf	??___flmul+1
  5207  058E  01DB               	clrf	??___flmul+2
  5208  058F  01DC               	clrf	??___flmul+3
  5209  0590  0859               	movf	??___flmul,w
  5210  0591  07E5               	addwf	___flmul@prod,f
  5211  0592  085A               	movf	??___flmul+1,w
  5212  0593  1103               	clrz
  5213  0594  1803               	skipnc
  5214  0595  3E01               	addlw	1
  5215  0596  1903               	skipnz
  5216  0597  2D99               	goto	u4061
  5217  0598  07E6               	addwf	___flmul@prod+1,f
  5218  0599                     u4061:
  5219  0599  085B               	movf	??___flmul+2,w
  5220  059A  1103               	clrz
  5221  059B  1803               	skipnc
  5222  059C  3E01               	addlw	1
  5223  059D  1903               	skipnz
  5224  059E  2DA0               	goto	u4062
  5225  059F  07E7               	addwf	___flmul@prod+2,f
  5226  05A0                     u4062:
  5227  05A0  085C               	movf	??___flmul+3,w
  5228  05A1  1103               	clrz
  5229  05A2  1803               	skipnc
  5230  05A3  3E01               	addlw	1
  5231  05A4  1903               	skipnz
  5232  05A5  2DA7               	goto	u4063
  5233  05A6  07E8               	addwf	___flmul@prod+3,f
  5234  05A7                     u4063:
  5235  05A7                     l3174:
  5236  05A7  3008               	movlw	8
  5237  05A8  00D9               	movwf	??___flmul
  5238  05A9                     u4075:
  5239  05A9  1003               	clrc
  5240  05AA  0DE0               	rlf	___flmul@grs,f
  5241  05AB  0DE1               	rlf	___flmul@grs+1,f
  5242  05AC  0DE2               	rlf	___flmul@grs+2,f
  5243  05AD  0DE3               	rlf	___flmul@grs+3,f
  5244  05AE  0BD9               	decfsz	??___flmul,f
  5245  05AF  2DA9               	goto	u4075
  5246  05B0                     l3176:
  5247  05B0  0852               	movf	___flmul@b+1,w
  5248  05B1  00D9               	movwf	??___flmul
  5249  05B2  0859               	movf	??___flmul,w
  5250  05B3  00F2               	movwf	__Umul8_16@multiplicand
  5251  05B4  0855               	movf	___flmul@a,w
  5252  05B5  120A  158A  2015  120A  118A  	fcall	__Umul8_16
  5253  05BA  0873               	movf	?__Umul8_16+1,w
  5254  05BB  1283               	bcf	3,5	;RP0=0, select bank0
  5255  05BC  1303               	bcf	3,6	;RP1=0, select bank0
  5256  05BD  00EA               	movwf	___flmul@temp+1
  5257  05BE  0872               	movf	?__Umul8_16,w
  5258  05BF  00E9               	movwf	___flmul@temp
  5259  05C0                     l3178:
  5260  05C0  0869               	movf	___flmul@temp,w
  5261  05C1  00D9               	movwf	??___flmul
  5262  05C2  086A               	movf	___flmul@temp+1,w
  5263  05C3  00DA               	movwf	??___flmul+1
  5264  05C4  01DB               	clrf	??___flmul+2
  5265  05C5  01DC               	clrf	??___flmul+3
  5266  05C6  0859               	movf	??___flmul,w
  5267  05C7  07E0               	addwf	___flmul@grs,f
  5268  05C8  085A               	movf	??___flmul+1,w
  5269  05C9  1103               	clrz
  5270  05CA  1803               	skipnc
  5271  05CB  3E01               	addlw	1
  5272  05CC  1903               	skipnz
  5273  05CD  2DCF               	goto	u4081
  5274  05CE  07E1               	addwf	___flmul@grs+1,f
  5275  05CF                     u4081:
  5276  05CF  085B               	movf	??___flmul+2,w
  5277  05D0  1103               	clrz
  5278  05D1  1803               	skipnc
  5279  05D2  3E01               	addlw	1
  5280  05D3  1903               	skipnz
  5281  05D4  2DD6               	goto	u4082
  5282  05D5  07E2               	addwf	___flmul@grs+2,f
  5283  05D6                     u4082:
  5284  05D6  085C               	movf	??___flmul+3,w
  5285  05D7  1103               	clrz
  5286  05D8  1803               	skipnc
  5287  05D9  3E01               	addlw	1
  5288  05DA  1903               	skipnz
  5289  05DB  2DDD               	goto	u4083
  5290  05DC  07E3               	addwf	___flmul@grs+3,f
  5291  05DD                     u4083:
  5292  05DD                     l3180:
  5293  05DD  0851               	movf	___flmul@b,w
  5294  05DE  00D9               	movwf	??___flmul
  5295  05DF  0859               	movf	??___flmul,w
  5296  05E0  00F2               	movwf	__Umul8_16@multiplicand
  5297  05E1  0856               	movf	___flmul@a+1,w
  5298  05E2  120A  158A  2015  120A  118A  	fcall	__Umul8_16
  5299  05E7  0873               	movf	?__Umul8_16+1,w
  5300  05E8  1283               	bcf	3,5	;RP0=0, select bank0
  5301  05E9  1303               	bcf	3,6	;RP1=0, select bank0
  5302  05EA  00EA               	movwf	___flmul@temp+1
  5303  05EB  0872               	movf	?__Umul8_16,w
  5304  05EC  00E9               	movwf	___flmul@temp
  5305  05ED                     l3182:
  5306  05ED  0869               	movf	___flmul@temp,w
  5307  05EE  00D9               	movwf	??___flmul
  5308  05EF  086A               	movf	___flmul@temp+1,w
  5309  05F0  00DA               	movwf	??___flmul+1
  5310  05F1  01DB               	clrf	??___flmul+2
  5311  05F2  01DC               	clrf	??___flmul+3
  5312  05F3  0859               	movf	??___flmul,w
  5313  05F4  07E0               	addwf	___flmul@grs,f
  5314  05F5  085A               	movf	??___flmul+1,w
  5315  05F6  1103               	clrz
  5316  05F7  1803               	skipnc
  5317  05F8  3E01               	addlw	1
  5318  05F9  1903               	skipnz
  5319  05FA  2DFC               	goto	u4091
  5320  05FB  07E1               	addwf	___flmul@grs+1,f
  5321  05FC                     u4091:
  5322  05FC  085B               	movf	??___flmul+2,w
  5323  05FD  1103               	clrz
  5324  05FE  1803               	skipnc
  5325  05FF  3E01               	addlw	1
  5326  0600  1903               	skipnz
  5327  0601  2E03               	goto	u4092
  5328  0602  07E2               	addwf	___flmul@grs+2,f
  5329  0603                     u4092:
  5330  0603  085C               	movf	??___flmul+3,w
  5331  0604  1103               	clrz
  5332  0605  1803               	skipnc
  5333  0606  3E01               	addlw	1
  5334  0607  1903               	skipnz
  5335  0608  2E0A               	goto	u4093
  5336  0609  07E3               	addwf	___flmul@grs+3,f
  5337  060A                     u4093:
  5338  060A                     l3184:
  5339  060A  3008               	movlw	8
  5340  060B  00D9               	movwf	??___flmul
  5341  060C                     u4105:
  5342  060C  1003               	clrc
  5343  060D  0DE0               	rlf	___flmul@grs,f
  5344  060E  0DE1               	rlf	___flmul@grs+1,f
  5345  060F  0DE2               	rlf	___flmul@grs+2,f
  5346  0610  0DE3               	rlf	___flmul@grs+3,f
  5347  0611  0BD9               	decfsz	??___flmul,f
  5348  0612  2E0C               	goto	u4105
  5349  0613  0851               	movf	___flmul@b,w
  5350  0614  00D9               	movwf	??___flmul
  5351  0615  0859               	movf	??___flmul,w
  5352  0616  00F2               	movwf	__Umul8_16@multiplicand
  5353  0617  0855               	movf	___flmul@a,w
  5354  0618  120A  158A  2015  120A  118A  	fcall	__Umul8_16
  5355  061D  0873               	movf	?__Umul8_16+1,w
  5356  061E  1283               	bcf	3,5	;RP0=0, select bank0
  5357  061F  1303               	bcf	3,6	;RP1=0, select bank0
  5358  0620  00EA               	movwf	___flmul@temp+1
  5359  0621  0872               	movf	?__Umul8_16,w
  5360  0622  00E9               	movwf	___flmul@temp
  5361  0623                     l3186:
  5362  0623  0869               	movf	___flmul@temp,w
  5363  0624  00D9               	movwf	??___flmul
  5364  0625  086A               	movf	___flmul@temp+1,w
  5365  0626  00DA               	movwf	??___flmul+1
  5366  0627  01DB               	clrf	??___flmul+2
  5367  0628  01DC               	clrf	??___flmul+3
  5368  0629  0859               	movf	??___flmul,w
  5369  062A  07E0               	addwf	___flmul@grs,f
  5370  062B  085A               	movf	??___flmul+1,w
  5371  062C  1103               	clrz
  5372  062D  1803               	skipnc
  5373  062E  3E01               	addlw	1
  5374  062F  1903               	skipnz
  5375  0630  2E32               	goto	u4111
  5376  0631  07E1               	addwf	___flmul@grs+1,f
  5377  0632                     u4111:
  5378  0632  085B               	movf	??___flmul+2,w
  5379  0633  1103               	clrz
  5380  0634  1803               	skipnc
  5381  0635  3E01               	addlw	1
  5382  0636  1903               	skipnz
  5383  0637  2E39               	goto	u4112
  5384  0638  07E2               	addwf	___flmul@grs+2,f
  5385  0639                     u4112:
  5386  0639  085C               	movf	??___flmul+3,w
  5387  063A  1103               	clrz
  5388  063B  1803               	skipnc
  5389  063C  3E01               	addlw	1
  5390  063D  1903               	skipnz
  5391  063E  2E40               	goto	u4113
  5392  063F  07E3               	addwf	___flmul@grs+3,f
  5393  0640                     u4113:
  5394  0640                     l3188:
  5395  0640  0852               	movf	___flmul@b+1,w
  5396  0641  00D9               	movwf	??___flmul
  5397  0642  0859               	movf	??___flmul,w
  5398  0643  00F2               	movwf	__Umul8_16@multiplicand
  5399  0644  0857               	movf	___flmul@a+2,w
  5400  0645  120A  158A  2015  120A  118A  	fcall	__Umul8_16
  5401  064A  0873               	movf	?__Umul8_16+1,w
  5402  064B  1283               	bcf	3,5	;RP0=0, select bank0
  5403  064C  1303               	bcf	3,6	;RP1=0, select bank0
  5404  064D  00EA               	movwf	___flmul@temp+1
  5405  064E  0872               	movf	?__Umul8_16,w
  5406  064F  00E9               	movwf	___flmul@temp
  5407  0650  0869               	movf	___flmul@temp,w
  5408  0651  00D9               	movwf	??___flmul
  5409  0652  086A               	movf	___flmul@temp+1,w
  5410  0653  00DA               	movwf	??___flmul+1
  5411  0654  01DB               	clrf	??___flmul+2
  5412  0655  01DC               	clrf	??___flmul+3
  5413  0656  0859               	movf	??___flmul,w
  5414  0657  07E5               	addwf	___flmul@prod,f
  5415  0658  085A               	movf	??___flmul+1,w
  5416  0659  1103               	clrz
  5417  065A  1803               	skipnc
  5418  065B  3E01               	addlw	1
  5419  065C  1903               	skipnz
  5420  065D  2E5F               	goto	u4121
  5421  065E  07E6               	addwf	___flmul@prod+1,f
  5422  065F                     u4121:
  5423  065F  085B               	movf	??___flmul+2,w
  5424  0660  1103               	clrz
  5425  0661  1803               	skipnc
  5426  0662  3E01               	addlw	1
  5427  0663  1903               	skipnz
  5428  0664  2E66               	goto	u4122
  5429  0665  07E7               	addwf	___flmul@prod+2,f
  5430  0666                     u4122:
  5431  0666  085C               	movf	??___flmul+3,w
  5432  0667  1103               	clrz
  5433  0668  1803               	skipnc
  5434  0669  3E01               	addlw	1
  5435  066A  1903               	skipnz
  5436  066B  2E6D               	goto	u4123
  5437  066C  07E8               	addwf	___flmul@prod+3,f
  5438  066D                     u4123:
  5439  066D                     l3190:
  5440  066D  0853               	movf	___flmul@b+2,w
  5441  066E  00D9               	movwf	??___flmul
  5442  066F  0859               	movf	??___flmul,w
  5443  0670  00F2               	movwf	__Umul8_16@multiplicand
  5444  0671  0856               	movf	___flmul@a+1,w
  5445  0672  120A  158A  2015  120A  118A  	fcall	__Umul8_16
  5446  0677  0873               	movf	?__Umul8_16+1,w
  5447  0678  1283               	bcf	3,5	;RP0=0, select bank0
  5448  0679  1303               	bcf	3,6	;RP1=0, select bank0
  5449  067A  00EA               	movwf	___flmul@temp+1
  5450  067B  0872               	movf	?__Umul8_16,w
  5451  067C  00E9               	movwf	___flmul@temp
  5452  067D                     l3192:
  5453  067D  0869               	movf	___flmul@temp,w
  5454  067E  00D9               	movwf	??___flmul
  5455  067F  086A               	movf	___flmul@temp+1,w
  5456  0680  00DA               	movwf	??___flmul+1
  5457  0681  01DB               	clrf	??___flmul+2
  5458  0682  01DC               	clrf	??___flmul+3
  5459  0683  0859               	movf	??___flmul,w
  5460  0684  07E5               	addwf	___flmul@prod,f
  5461  0685  085A               	movf	??___flmul+1,w
  5462  0686  1103               	clrz
  5463  0687  1803               	skipnc
  5464  0688  3E01               	addlw	1
  5465  0689  1903               	skipnz
  5466  068A  2E8C               	goto	u4131
  5467  068B  07E6               	addwf	___flmul@prod+1,f
  5468  068C                     u4131:
  5469  068C  085B               	movf	??___flmul+2,w
  5470  068D  1103               	clrz
  5471  068E  1803               	skipnc
  5472  068F  3E01               	addlw	1
  5473  0690  1903               	skipnz
  5474  0691  2E93               	goto	u4132
  5475  0692  07E7               	addwf	___flmul@prod+2,f
  5476  0693                     u4132:
  5477  0693  085C               	movf	??___flmul+3,w
  5478  0694  1103               	clrz
  5479  0695  1803               	skipnc
  5480  0696  3E01               	addlw	1
  5481  0697  1903               	skipnz
  5482  0698  2E9A               	goto	u4133
  5483  0699  07E8               	addwf	___flmul@prod+3,f
  5484  069A                     u4133:
  5485  069A  0853               	movf	___flmul@b+2,w
  5486  069B  00D9               	movwf	??___flmul
  5487  069C  0859               	movf	??___flmul,w
  5488  069D  00F2               	movwf	__Umul8_16@multiplicand
  5489  069E  0857               	movf	___flmul@a+2,w
  5490  069F  120A  158A  2015  120A  118A  	fcall	__Umul8_16
  5491  06A4  0873               	movf	?__Umul8_16+1,w
  5492  06A5  1283               	bcf	3,5	;RP0=0, select bank0
  5493  06A6  1303               	bcf	3,6	;RP1=0, select bank0
  5494  06A7  00EA               	movwf	___flmul@temp+1
  5495  06A8  0872               	movf	?__Umul8_16,w
  5496  06A9  00E9               	movwf	___flmul@temp
  5497  06AA                     l3194:
  5498  06AA  0869               	movf	___flmul@temp,w
  5499  06AB  00D9               	movwf	??___flmul
  5500  06AC  086A               	movf	___flmul@temp+1,w
  5501  06AD  00DA               	movwf	??___flmul+1
  5502  06AE  01DB               	clrf	??___flmul+2
  5503  06AF  01DC               	clrf	??___flmul+3
  5504  06B0  3008               	movlw	8
  5505  06B1                     u4145:
  5506  06B1  1003               	clrc
  5507  06B2  0DD9               	rlf	??___flmul,f
  5508  06B3  0DDA               	rlf	??___flmul+1,f
  5509  06B4  0DDB               	rlf	??___flmul+2,f
  5510  06B5  0DDC               	rlf	??___flmul+3,f
  5511  06B6                     u4140:
  5512  06B6  3EFF               	addlw	-1
  5513  06B7  1D03               	skipz
  5514  06B8  2EB1               	goto	u4145
  5515  06B9  0859               	movf	??___flmul,w
  5516  06BA  07E5               	addwf	___flmul@prod,f
  5517  06BB  085A               	movf	??___flmul+1,w
  5518  06BC  1103               	clrz
  5519  06BD  1803               	skipnc
  5520  06BE  3E01               	addlw	1
  5521  06BF  1903               	skipnz
  5522  06C0  2EC2               	goto	u4151
  5523  06C1  07E6               	addwf	___flmul@prod+1,f
  5524  06C2                     u4151:
  5525  06C2  085B               	movf	??___flmul+2,w
  5526  06C3  1103               	clrz
  5527  06C4  1803               	skipnc
  5528  06C5  3E01               	addlw	1
  5529  06C6  1903               	skipnz
  5530  06C7  2EC9               	goto	u4152
  5531  06C8  07E7               	addwf	___flmul@prod+2,f
  5532  06C9                     u4152:
  5533  06C9  085C               	movf	??___flmul+3,w
  5534  06CA  1103               	clrz
  5535  06CB  1803               	skipnc
  5536  06CC  3E01               	addlw	1
  5537  06CD  1903               	skipnz
  5538  06CE  2ED0               	goto	u4153
  5539  06CF  07E8               	addwf	___flmul@prod+3,f
  5540  06D0                     u4153:
  5541  06D0                     l3196:
  5542  06D0  0860               	movf	___flmul@grs,w
  5543  06D1  00D9               	movwf	??___flmul
  5544  06D2  0861               	movf	___flmul@grs+1,w
  5545  06D3  00DA               	movwf	??___flmul+1
  5546  06D4  0862               	movf	___flmul@grs+2,w
  5547  06D5  00DB               	movwf	??___flmul+2
  5548  06D6  0863               	movf	___flmul@grs+3,w
  5549  06D7  00DC               	movwf	??___flmul+3
  5550  06D8  3018               	movlw	24
  5551  06D9                     u4165:
  5552  06D9  1003               	clrc
  5553  06DA  0CDC               	rrf	??___flmul+3,f
  5554  06DB  0CDB               	rrf	??___flmul+2,f
  5555  06DC  0CDA               	rrf	??___flmul+1,f
  5556  06DD  0CD9               	rrf	??___flmul,f
  5557  06DE                     u4160:
  5558  06DE  3EFF               	addlw	-1
  5559  06DF  1D03               	skipz
  5560  06E0  2ED9               	goto	u4165
  5561  06E1  0859               	movf	??___flmul,w
  5562  06E2  07E5               	addwf	___flmul@prod,f
  5563  06E3  085A               	movf	??___flmul+1,w
  5564  06E4  1103               	clrz
  5565  06E5  1803               	skipnc
  5566  06E6  3E01               	addlw	1
  5567  06E7  1903               	skipnz
  5568  06E8  2EEA               	goto	u4171
  5569  06E9  07E6               	addwf	___flmul@prod+1,f
  5570  06EA                     u4171:
  5571  06EA  085B               	movf	??___flmul+2,w
  5572  06EB  1103               	clrz
  5573  06EC  1803               	skipnc
  5574  06ED  3E01               	addlw	1
  5575  06EE  1903               	skipnz
  5576  06EF  2EF1               	goto	u4172
  5577  06F0  07E7               	addwf	___flmul@prod+2,f
  5578  06F1                     u4172:
  5579  06F1  085C               	movf	??___flmul+3,w
  5580  06F2  1103               	clrz
  5581  06F3  1803               	skipnc
  5582  06F4  3E01               	addlw	1
  5583  06F5  1903               	skipnz
  5584  06F6  2EF8               	goto	u4173
  5585  06F7  07E8               	addwf	___flmul@prod+3,f
  5586  06F8                     u4173:
  5587  06F8                     l3198:
  5588  06F8  3008               	movlw	8
  5589  06F9  00D9               	movwf	??___flmul
  5590  06FA                     u4185:
  5591  06FA  1003               	clrc
  5592  06FB  0DE0               	rlf	___flmul@grs,f
  5593  06FC  0DE1               	rlf	___flmul@grs+1,f
  5594  06FD  0DE2               	rlf	___flmul@grs+2,f
  5595  06FE  0DE3               	rlf	___flmul@grs+3,f
  5596  06FF  0BD9               	decfsz	??___flmul,f
  5597  0700  2EFA               	goto	u4185
  5598  0701                     l3200:
  5599  0701  0864               	movf	___flmul@bexp,w
  5600  0702  075F               	addwf	___flmul@aexp,w
  5601  0703  00D9               	movwf	??___flmul
  5602  0704  01DA               	clrf	??___flmul+1
  5603  0705  0DDA               	rlf	??___flmul+1,f
  5604  0706  0859               	movf	??___flmul,w
  5605  0707  3E82               	addlw	130
  5606  0708  00E9               	movwf	___flmul@temp
  5607  0709  085A               	movf	??___flmul+1,w
  5608  070A  1803               	skipnc
  5609  070B  3E01               	addlw	1
  5610  070C  3EFF               	addlw	255
  5611  070D  00EA               	movwf	___flmul@temp+1
  5612  070E  2F2C               	goto	l3212
  5613  070F                     l3202:
  5614  070F  3001               	movlw	1
  5615  0710  00D9               	movwf	??___flmul
  5616  0711                     u4195:
  5617  0711  1003               	clrc
  5618  0712  0DE5               	rlf	___flmul@prod,f
  5619  0713  0DE6               	rlf	___flmul@prod+1,f
  5620  0714  0DE7               	rlf	___flmul@prod+2,f
  5621  0715  0DE8               	rlf	___flmul@prod+3,f
  5622  0716  0BD9               	decfsz	??___flmul,f
  5623  0717  2F11               	goto	u4195
  5624  0718                     l3204:
  5625  0718  1FE3               	btfss	___flmul@grs+3,7
  5626  0719  2F1B               	goto	u4201
  5627  071A  2F1C               	goto	u4200
  5628  071B                     u4201:
  5629  071B  2F1D               	goto	l3208
  5630  071C                     u4200:
  5631  071C                     l3206:
  5632  071C  1465               	bsf	___flmul@prod,0
  5633  071D                     l3208:
  5634  071D  3001               	movlw	1
  5635  071E  00D9               	movwf	??___flmul
  5636  071F                     u4215:
  5637  071F  1003               	clrc
  5638  0720  0DE0               	rlf	___flmul@grs,f
  5639  0721  0DE1               	rlf	___flmul@grs+1,f
  5640  0722  0DE2               	rlf	___flmul@grs+2,f
  5641  0723  0DE3               	rlf	___flmul@grs+3,f
  5642  0724  0BD9               	decfsz	??___flmul,f
  5643  0725  2F1F               	goto	u4215
  5644  0726                     l3210:
  5645  0726  30FF               	movlw	255
  5646  0727  07E9               	addwf	___flmul@temp,f
  5647  0728  1803               	skipnc
  5648  0729  0AEA               	incf	___flmul@temp+1,f
  5649  072A  30FF               	movlw	255
  5650  072B  07EA               	addwf	___flmul@temp+1,f
  5651  072C                     l3212:
  5652  072C  1FE7               	btfss	___flmul@prod+2,7
  5653  072D  2F2F               	goto	u4221
  5654  072E  2F30               	goto	u4220
  5655  072F                     u4221:
  5656  072F  2F0F               	goto	l3202
  5657  0730                     u4220:
  5658  0730                     l3214:
  5659  0730  01DF               	clrf	___flmul@aexp
  5660  0731                     l3216:
  5661  0731  1FE3               	btfss	___flmul@grs+3,7
  5662  0732  2F34               	goto	u4231
  5663  0733  2F35               	goto	u4230
  5664  0734                     u4231:
  5665  0734  2F51               	goto	l3224
  5666  0735                     u4230:
  5667  0735                     l3218:
  5668  0735  30FF               	movlw	255
  5669  0736  0560               	andwf	___flmul@grs,w
  5670  0737  00D9               	movwf	??___flmul
  5671  0738  30FF               	movlw	255
  5672  0739  0561               	andwf	___flmul@grs+1,w
  5673  073A  00DA               	movwf	??___flmul+1
  5674  073B  30FF               	movlw	255
  5675  073C  0562               	andwf	___flmul@grs+2,w
  5676  073D  00DB               	movwf	??___flmul+2
  5677  073E  307F               	movlw	127
  5678  073F  0563               	andwf	___flmul@grs+3,w
  5679  0740  00DC               	movwf	??___flmul+3
  5680  0741  085C               	movf	??___flmul+3,w
  5681  0742  045B               	iorwf	??___flmul+2,w
  5682  0743  045A               	iorwf	??___flmul+1,w
  5683  0744  0459               	iorwf	??___flmul,w
  5684  0745  1903               	skipnz
  5685  0746  2F48               	goto	u4241
  5686  0747  2F49               	goto	u4240
  5687  0748                     u4241:
  5688  0748  2F4C               	goto	l747
  5689  0749                     u4240:
  5690  0749                     l3220:
  5691  0749  01DF               	clrf	___flmul@aexp
  5692  074A  0ADF               	incf	___flmul@aexp,f
  5693  074B  2F51               	goto	l3224
  5694  074C                     l747:
  5695  074C  1C65               	btfss	___flmul@prod,0
  5696  074D  2F4F               	goto	u4251
  5697  074E  2F50               	goto	u4250
  5698  074F                     u4251:
  5699  074F  2F51               	goto	l3224
  5700  0750                     u4250:
  5701  0750  2F49               	goto	l3220
  5702  0751                     l3224:
  5703  0751  085F               	movf	___flmul@aexp,w
  5704  0752  1903               	btfsc	3,2
  5705  0753  2F55               	goto	u4261
  5706  0754  2F56               	goto	u4260
  5707  0755                     u4261:
  5708  0755  2F87               	goto	l3234
  5709  0756                     u4260:
  5710  0756                     l3226:
  5711  0756  3001               	movlw	1
  5712  0757  07E5               	addwf	___flmul@prod,f
  5713  0758  3000               	movlw	0
  5714  0759  1803               	skipnc
  5715  075A  3001               	movlw	1
  5716  075B  07E6               	addwf	___flmul@prod+1,f
  5717  075C  3000               	movlw	0
  5718  075D  1803               	skipnc
  5719  075E  3001               	movlw	1
  5720  075F  07E7               	addwf	___flmul@prod+2,f
  5721  0760  3000               	movlw	0
  5722  0761  1803               	skipnc
  5723  0762  3001               	movlw	1
  5724  0763  07E8               	addwf	___flmul@prod+3,f
  5725  0764                     l3228:
  5726  0764  1C68               	btfss	___flmul@prod+3,0
  5727  0765  2F67               	goto	u4271
  5728  0766  2F68               	goto	u4270
  5729  0767                     u4271:
  5730  0767  2F87               	goto	l3234
  5731  0768                     u4270:
  5732  0768                     l3230:
  5733  0768  0865               	movf	___flmul@prod,w
  5734  0769  00D9               	movwf	??___flmul
  5735  076A  0866               	movf	___flmul@prod+1,w
  5736  076B  00DA               	movwf	??___flmul+1
  5737  076C  0867               	movf	___flmul@prod+2,w
  5738  076D  00DB               	movwf	??___flmul+2
  5739  076E  0868               	movf	___flmul@prod+3,w
  5740  076F  00DC               	movwf	??___flmul+3
  5741  0770  3001               	movlw	1
  5742  0771  00DD               	movwf	??___flmul+4
  5743  0772                     u4285:
  5744  0772  0D5C               	rlf	??___flmul+3,w
  5745  0773  0CDC               	rrf	??___flmul+3,f
  5746  0774  0CDB               	rrf	??___flmul+2,f
  5747  0775  0CDA               	rrf	??___flmul+1,f
  5748  0776  0CD9               	rrf	??___flmul,f
  5749  0777                     u4280:
  5750  0777  0BDD               	decfsz	??___flmul+4,f
  5751  0778  2F72               	goto	u4285
  5752  0779  085C               	movf	??___flmul+3,w
  5753  077A  00E8               	movwf	___flmul@prod+3
  5754  077B  085B               	movf	??___flmul+2,w
  5755  077C  00E7               	movwf	___flmul@prod+2
  5756  077D  085A               	movf	??___flmul+1,w
  5757  077E  00E6               	movwf	___flmul@prod+1
  5758  077F  0859               	movf	??___flmul,w
  5759  0780  00E5               	movwf	___flmul@prod
  5760  0781                     l3232:
  5761  0781  3001               	movlw	1
  5762  0782  07E9               	addwf	___flmul@temp,f
  5763  0783  1803               	skipnc
  5764  0784  0AEA               	incf	___flmul@temp+1,f
  5765  0785  3000               	movlw	0
  5766  0786  07EA               	addwf	___flmul@temp+1,f
  5767  0787                     l3234:
  5768  0787  086A               	movf	___flmul@temp+1,w
  5769  0788  3A80               	xorlw	128
  5770  0789  00FF               	movwf	btemp+1
  5771  078A  3080               	movlw	128
  5772  078B  027F               	subwf	btemp+1,w
  5773  078C  1D03               	skipz
  5774  078D  2F90               	goto	u4295
  5775  078E  30FF               	movlw	255
  5776  078F  0269               	subwf	___flmul@temp,w
  5777  0790                     u4295:
  5778  0790  1C03               	skipc
  5779  0791  2F93               	goto	u4291
  5780  0792  2F94               	goto	u4290
  5781  0793                     u4291:
  5782  0793  2F9F               	goto	l3238
  5783  0794                     u4290:
  5784  0794                     l3236:
  5785  0794  307F               	movlw	127
  5786  0795  1283               	bcf	3,5	;RP0=0, select bank0
  5787  0796  1303               	bcf	3,6	;RP1=0, select bank0
  5788  0797  00E8               	movwf	___flmul@prod+3
  5789  0798  3080               	movlw	128
  5790  0799  00E7               	movwf	___flmul@prod+2
  5791  079A  3000               	movlw	0
  5792  079B  00E6               	movwf	___flmul@prod+1
  5793  079C  3000               	movlw	0
  5794  079D  00E5               	movwf	___flmul@prod
  5795  079E  2FD4               	goto	l753
  5796  079F                     l3238:
  5797  079F  1283               	bcf	3,5	;RP0=0, select bank0
  5798  07A0  1303               	bcf	3,6	;RP1=0, select bank0
  5799  07A1  086A               	movf	___flmul@temp+1,w
  5800  07A2  3A80               	xorlw	128
  5801  07A3  00FF               	movwf	btemp+1
  5802  07A4  3080               	movlw	128
  5803  07A5  027F               	subwf	btemp+1,w
  5804  07A6  1D03               	skipz
  5805  07A7  2FAA               	goto	u4305
  5806  07A8  3001               	movlw	1
  5807  07A9  0269               	subwf	___flmul@temp,w
  5808  07AA                     u4305:
  5809  07AA  1803               	skipnc
  5810  07AB  2FAD               	goto	u4301
  5811  07AC  2FAE               	goto	u4300
  5812  07AD                     u4301:
  5813  07AD  2FBA               	goto	l3244
  5814  07AE                     u4300:
  5815  07AE                     l3240:
  5816  07AE  3000               	movlw	0
  5817  07AF  1283               	bcf	3,5	;RP0=0, select bank0
  5818  07B0  1303               	bcf	3,6	;RP1=0, select bank0
  5819  07B1  00E8               	movwf	___flmul@prod+3
  5820  07B2  3000               	movlw	0
  5821  07B3  00E7               	movwf	___flmul@prod+2
  5822  07B4  3000               	movlw	0
  5823  07B5  00E6               	movwf	___flmul@prod+1
  5824  07B6  3000               	movlw	0
  5825  07B7  00E5               	movwf	___flmul@prod
  5826  07B8                     l3242:
  5827  07B8  01DE               	clrf	___flmul@sign
  5828  07B9  2FD4               	goto	l753
  5829  07BA                     l3244:
  5830  07BA  1283               	bcf	3,5	;RP0=0, select bank0
  5831  07BB  1303               	bcf	3,6	;RP1=0, select bank0
  5832  07BC  0869               	movf	___flmul@temp,w
  5833  07BD  00D9               	movwf	??___flmul
  5834  07BE  0859               	movf	??___flmul,w
  5835  07BF  00E4               	movwf	___flmul@bexp
  5836  07C0  30FF               	movlw	255
  5837  07C1  05E5               	andwf	___flmul@prod,f
  5838  07C2  30FF               	movlw	255
  5839  07C3  05E6               	andwf	___flmul@prod+1,f
  5840  07C4  307F               	movlw	127
  5841  07C5  05E7               	andwf	___flmul@prod+2,f
  5842  07C6  3000               	movlw	0
  5843  07C7  05E8               	andwf	___flmul@prod+3,f
  5844  07C8                     l3246:
  5845  07C8  1C64               	btfss	___flmul@bexp,0
  5846  07C9  2FCB               	goto	u4311
  5847  07CA  2FCC               	goto	u4310
  5848  07CB                     u4311:
  5849  07CB  2FCD               	goto	l3250
  5850  07CC                     u4310:
  5851  07CC                     l3248:
  5852  07CC  17E7               	bsf	___flmul@prod+2,7
  5853  07CD                     l3250:
  5854  07CD  0864               	movf	___flmul@bexp,w
  5855  07CE  00D9               	movwf	??___flmul
  5856  07CF  1003               	clrc
  5857  07D0  0C59               	rrf	??___flmul,w
  5858  07D1  00DA               	movwf	??___flmul+1
  5859  07D2  085A               	movf	??___flmul+1,w
  5860  07D3  00E8               	movwf	___flmul@prod+3
  5861  07D4                     l753:
  5862  07D4  085E               	movf	___flmul@sign,w
  5863  07D5  00D9               	movwf	??___flmul
  5864  07D6  0859               	movf	??___flmul,w
  5865  07D7  04E8               	iorwf	___flmul@prod+3,f
  5866  07D8                     l3252:
  5867  07D8  0868               	movf	___flmul@prod+3,w
  5868  07D9  00D4               	movwf	?___flmul+3
  5869  07DA  0867               	movf	___flmul@prod+2,w
  5870  07DB  00D3               	movwf	?___flmul+2
  5871  07DC  0866               	movf	___flmul@prod+1,w
  5872  07DD  00D2               	movwf	?___flmul+1
  5873  07DE  0865               	movf	___flmul@prod,w
  5874  07DF  00D1               	movwf	?___flmul
  5875  07E0                     l741:
  5876  07E0  0008               	return
  5877  07E1                     __end_of___flmul:
  5878                           
  5879                           	psect	text10
  5880  0815                     __ptext10:	
  5881 ;; *************** function __Umul8_16 *****************
  5882 ;; Defined at:
  5883 ;;		line 4 in file "C:\Program Files\Microchip\xc8\v2.31\pic\sources\c90\common\Umul8_16.c"
  5884 ;; Parameters:    Size  Location     Type
  5885 ;;  multiplier      1    wreg     unsigned char 
  5886 ;;  multiplicand    1    2[COMMON] unsigned char 
  5887 ;; Auto vars:     Size  Location     Type
  5888 ;;  multiplier      1    4[BANK0 ] unsigned char 
  5889 ;;  word_mpld       2    2[BANK0 ] unsigned int 
  5890 ;;  product         2    0[BANK0 ] unsigned int 
  5891 ;; Return value:  Size  Location     Type
  5892 ;;                  2    2[COMMON] unsigned int 
  5893 ;; Registers used:
  5894 ;;		wreg, status,2, status,0
  5895 ;; Tracked objects:
  5896 ;;		On entry : 0/0
  5897 ;;		On exit  : 0/0
  5898 ;;		Unchanged: 0/0
  5899 ;; Data sizes:     COMMON   BANK0   BANK1   BANK3   BANK2
  5900 ;;      Params:         2       0       0       0       0
  5901 ;;      Locals:         0       5       0       0       0
  5902 ;;      Temps:          2       0       0       0       0
  5903 ;;      Totals:         4       5       0       0       0
  5904 ;;Total ram usage:        9 bytes
  5905 ;; Hardware stack levels used:    1
  5906 ;; Hardware stack levels required when called:    1
  5907 ;; This function calls:
  5908 ;;		Nothing
  5909 ;; This function is called by:
  5910 ;;		___flmul
  5911 ;; This function uses a non-reentrant model
  5912 ;;
  5913                           
  5914                           
  5915                           ;psect for function __Umul8_16
  5916  0815                     __Umul8_16:
  5917                           
  5918                           ;incstack = 0
  5919                           ; Regs used in __Umul8_16: [wreg+status,2+status,0]
  5920                           ;__Umul8_16@multiplier stored from wreg
  5921  0815  1283               	bcf	3,5	;RP0=0, select bank0
  5922  0816  1303               	bcf	3,6	;RP1=0, select bank0
  5923  0817  00A4               	movwf	__Umul8_16@multiplier
  5924  0818                     l2988:
  5925  0818  01A0               	clrf	__Umul8_16@product
  5926  0819  01A1               	clrf	__Umul8_16@product+1
  5927  081A                     l2990:
  5928  081A  0872               	movf	__Umul8_16@multiplicand,w
  5929  081B  00F4               	movwf	??__Umul8_16
  5930  081C  01F5               	clrf	??__Umul8_16+1
  5931  081D  0874               	movf	??__Umul8_16,w
  5932  081E  00A2               	movwf	__Umul8_16@word_mpld
  5933  081F  0875               	movf	??__Umul8_16+1,w
  5934  0820  00A3               	movwf	__Umul8_16@word_mpld+1
  5935  0821                     l2992:
  5936  0821  1C24               	btfss	__Umul8_16@multiplier,0
  5937  0822  2824               	goto	u3681
  5938  0823  2825               	goto	u3680
  5939  0824                     u3681:
  5940  0824  282B               	goto	l760
  5941  0825                     u3680:
  5942  0825                     l2994:
  5943  0825  0822               	movf	__Umul8_16@word_mpld,w
  5944  0826  07A0               	addwf	__Umul8_16@product,f
  5945  0827  1803               	skipnc
  5946  0828  0AA1               	incf	__Umul8_16@product+1,f
  5947  0829  0823               	movf	__Umul8_16@word_mpld+1,w
  5948  082A  07A1               	addwf	__Umul8_16@product+1,f
  5949  082B                     l760:
  5950  082B  3001               	movlw	1
  5951  082C                     u3695:
  5952  082C  1003               	clrc
  5953  082D  0DA2               	rlf	__Umul8_16@word_mpld,f
  5954  082E  0DA3               	rlf	__Umul8_16@word_mpld+1,f
  5955  082F  3EFF               	addlw	-1
  5956  0830  1D03               	skipz
  5957  0831  282C               	goto	u3695
  5958  0832  1003               	clrc
  5959  0833  0CA4               	rrf	__Umul8_16@multiplier,f
  5960  0834                     l2996:
  5961  0834  0824               	movf	__Umul8_16@multiplier,w
  5962  0835  1D03               	btfss	3,2
  5963  0836  2838               	goto	u3701
  5964  0837  2839               	goto	u3700
  5965  0838                     u3701:
  5966  0838  2821               	goto	l2992
  5967  0839                     u3700:
  5968  0839                     l2998:
  5969  0839  0821               	movf	__Umul8_16@product+1,w
  5970  083A  00F3               	movwf	?__Umul8_16+1
  5971  083B  0820               	movf	__Umul8_16@product,w
  5972  083C  00F2               	movwf	?__Umul8_16
  5973  083D                     l762:
  5974  083D  0008               	return
  5975  083E                     __end_of__Umul8_16:
  5976                           
  5977                           	psect	text11
  5978  175C                     __ptext11:	
  5979 ;; *************** function ___flge *****************
  5980 ;; Defined at:
  5981 ;;		line 4 in file "C:\Program Files\Microchip\xc8\v2.31\pic\sources\c90\common\flge.c"
  5982 ;; Parameters:    Size  Location     Type
  5983 ;;  ff1             4    2[COMMON] unsigned int 
  5984 ;;  ff2             4    6[COMMON] unsigned int 
  5985 ;; Auto vars:     Size  Location     Type
  5986 ;;		None
  5987 ;; Return value:  Size  Location     Type
  5988 ;;		None               void
  5989 ;; Registers used:
  5990 ;;		wreg, status,2, status,0
  5991 ;; Tracked objects:
  5992 ;;		On entry : 0/0
  5993 ;;		On exit  : 0/0
  5994 ;;		Unchanged: 0/0
  5995 ;; Data sizes:     COMMON   BANK0   BANK1   BANK3   BANK2
  5996 ;;      Params:         8       0       0       0       0
  5997 ;;      Locals:         0       0       0       0       0
  5998 ;;      Temps:          0       4       0       0       0
  5999 ;;      Totals:         8       4       0       0       0
  6000 ;;Total ram usage:       12 bytes
  6001 ;; Hardware stack levels used:    1
  6002 ;; Hardware stack levels required when called:    1
  6003 ;; This function calls:
  6004 ;;		Nothing
  6005 ;; This function is called by:
  6006 ;;		_convert
  6007 ;; This function uses a non-reentrant model
  6008 ;;
  6009                           
  6010                           
  6011                           ;psect for function ___flge
  6012  175C                     ___flge:
  6013  175C                     l2254:	
  6014                           ;incstack = 0
  6015                           ; Regs used in ___flge: [wreg+status,2+status,0]
  6016                           
  6017  175C  3000               	movlw	0
  6018  175D  0572               	andwf	___flge@ff1,w
  6019  175E  1283               	bcf	3,5	;RP0=0, select bank0
  6020  175F  1303               	bcf	3,6	;RP1=0, select bank0
  6021  1760  00A0               	movwf	??___flge
  6022  1761  3000               	movlw	0
  6023  1762  0573               	andwf	___flge@ff1+1,w
  6024  1763  00A1               	movwf	??___flge+1
  6025  1764  3080               	movlw	128
  6026  1765  0574               	andwf	___flge@ff1+2,w
  6027  1766  00A2               	movwf	??___flge+2
  6028  1767  307F               	movlw	127
  6029  1768  0575               	andwf	___flge@ff1+3,w
  6030  1769  00A3               	movwf	??___flge+3
  6031  176A  0823               	movf	??___flge+3,w
  6032  176B  0422               	iorwf	??___flge+2,w
  6033  176C  0421               	iorwf	??___flge+1,w
  6034  176D  0420               	iorwf	??___flge,w
  6035  176E  1D03               	skipz
  6036  176F  2F71               	goto	u2531
  6037  1770  2F72               	goto	u2530
  6038  1771                     u2531:
  6039  1771  2F7A               	goto	l526
  6040  1772                     u2530:
  6041  1772                     l2256:
  6042  1772  3000               	movlw	0
  6043  1773  00F5               	movwf	___flge@ff1+3
  6044  1774  3000               	movlw	0
  6045  1775  00F4               	movwf	___flge@ff1+2
  6046  1776  3000               	movlw	0
  6047  1777  00F3               	movwf	___flge@ff1+1
  6048  1778  3000               	movlw	0
  6049  1779  00F2               	movwf	___flge@ff1
  6050  177A                     l526:
  6051  177A  3000               	movlw	0
  6052  177B  0576               	andwf	___flge@ff2,w
  6053  177C  00A0               	movwf	??___flge
  6054  177D  3000               	movlw	0
  6055  177E  0577               	andwf	___flge@ff2+1,w
  6056  177F  00A1               	movwf	??___flge+1
  6057  1780  3080               	movlw	128
  6058  1781  0578               	andwf	___flge@ff2+2,w
  6059  1782  00A2               	movwf	??___flge+2
  6060  1783  307F               	movlw	127
  6061  1784  0579               	andwf	___flge@ff2+3,w
  6062  1785  00A3               	movwf	??___flge+3
  6063  1786  0823               	movf	??___flge+3,w
  6064  1787  0422               	iorwf	??___flge+2,w
  6065  1788  0421               	iorwf	??___flge+1,w
  6066  1789  0420               	iorwf	??___flge,w
  6067  178A  1D03               	skipz
  6068  178B  2F8D               	goto	u2541
  6069  178C  2F8E               	goto	u2540
  6070  178D                     u2541:
  6071  178D  2F96               	goto	l2260
  6072  178E                     u2540:
  6073  178E                     l2258:
  6074  178E  3000               	movlw	0
  6075  178F  00F9               	movwf	___flge@ff2+3
  6076  1790  3000               	movlw	0
  6077  1791  00F8               	movwf	___flge@ff2+2
  6078  1792  3000               	movlw	0
  6079  1793  00F7               	movwf	___flge@ff2+1
  6080  1794  3000               	movlw	0
  6081  1795  00F6               	movwf	___flge@ff2
  6082  1796                     l2260:
  6083  1796  1FF5               	btfss	___flge@ff1+3,7
  6084  1797  2F99               	goto	u2551
  6085  1798  2F9A               	goto	u2550
  6086  1799                     u2551:
  6087  1799  2FBE               	goto	l2264
  6088  179A                     u2550:
  6089  179A                     l2262:
  6090  179A  3000               	movlw	0
  6091  179B  00A0               	movwf	??___flge
  6092  179C  3000               	movlw	0
  6093  179D  00A1               	movwf	??___flge+1
  6094  179E  3000               	movlw	0
  6095  179F  00A2               	movwf	??___flge+2
  6096  17A0  3080               	movlw	128
  6097  17A1  00A3               	movwf	??___flge+3
  6098  17A2  0872               	movf	___flge@ff1,w
  6099  17A3  02A0               	subwf	??___flge,f
  6100  17A4  0873               	movf	___flge@ff1+1,w
  6101  17A5  1C03               	skipc
  6102  17A6  0F73               	incfsz	___flge@ff1+1,w
  6103  17A7  2FA9               	goto	u2561
  6104  17A8  2FAA               	goto	u2562
  6105  17A9                     u2561:
  6106  17A9  02A1               	subwf	??___flge+1,f
  6107  17AA                     u2562:
  6108  17AA  0874               	movf	___flge@ff1+2,w
  6109  17AB  1C03               	skipc
  6110  17AC  0F74               	incfsz	___flge@ff1+2,w
  6111  17AD  2FAF               	goto	u2563
  6112  17AE  2FB0               	goto	u2564
  6113  17AF                     u2563:
  6114  17AF  02A2               	subwf	??___flge+2,f
  6115  17B0                     u2564:
  6116  17B0  0875               	movf	___flge@ff1+3,w
  6117  17B1  1C03               	skipc
  6118  17B2  0F75               	incfsz	___flge@ff1+3,w
  6119  17B3  2FB5               	goto	u2565
  6120  17B4  2FB6               	goto	u2566
  6121  17B5                     u2565:
  6122  17B5  02A3               	subwf	??___flge+3,f
  6123  17B6                     u2566:
  6124  17B6  0823               	movf	??___flge+3,w
  6125  17B7  00F5               	movwf	___flge@ff1+3
  6126  17B8  0822               	movf	??___flge+2,w
  6127  17B9  00F4               	movwf	___flge@ff1+2
  6128  17BA  0821               	movf	??___flge+1,w
  6129  17BB  00F3               	movwf	___flge@ff1+1
  6130  17BC  0820               	movf	??___flge,w
  6131  17BD  00F2               	movwf	___flge@ff1
  6132  17BE                     l2264:
  6133  17BE  1FF9               	btfss	___flge@ff2+3,7
  6134  17BF  2FC1               	goto	u2571
  6135  17C0  2FC2               	goto	u2570
  6136  17C1                     u2571:
  6137  17C1  2FE6               	goto	l529
  6138  17C2                     u2570:
  6139  17C2                     l2266:
  6140  17C2  3000               	movlw	0
  6141  17C3  00A0               	movwf	??___flge
  6142  17C4  3000               	movlw	0
  6143  17C5  00A1               	movwf	??___flge+1
  6144  17C6  3000               	movlw	0
  6145  17C7  00A2               	movwf	??___flge+2
  6146  17C8  3080               	movlw	128
  6147  17C9  00A3               	movwf	??___flge+3
  6148  17CA  0876               	movf	___flge@ff2,w
  6149  17CB  02A0               	subwf	??___flge,f
  6150  17CC  0877               	movf	___flge@ff2+1,w
  6151  17CD  1C03               	skipc
  6152  17CE  0F77               	incfsz	___flge@ff2+1,w
  6153  17CF  2FD1               	goto	u2581
  6154  17D0  2FD2               	goto	u2582
  6155  17D1                     u2581:
  6156  17D1  02A1               	subwf	??___flge+1,f
  6157  17D2                     u2582:
  6158  17D2  0878               	movf	___flge@ff2+2,w
  6159  17D3  1C03               	skipc
  6160  17D4  0F78               	incfsz	___flge@ff2+2,w
  6161  17D5  2FD7               	goto	u2583
  6162  17D6  2FD8               	goto	u2584
  6163  17D7                     u2583:
  6164  17D7  02A2               	subwf	??___flge+2,f
  6165  17D8                     u2584:
  6166  17D8  0879               	movf	___flge@ff2+3,w
  6167  17D9  1C03               	skipc
  6168  17DA  0F79               	incfsz	___flge@ff2+3,w
  6169  17DB  2FDD               	goto	u2585
  6170  17DC  2FDE               	goto	u2586
  6171  17DD                     u2585:
  6172  17DD  02A3               	subwf	??___flge+3,f
  6173  17DE                     u2586:
  6174  17DE  0823               	movf	??___flge+3,w
  6175  17DF  00F9               	movwf	___flge@ff2+3
  6176  17E0  0822               	movf	??___flge+2,w
  6177  17E1  00F8               	movwf	___flge@ff2+2
  6178  17E2  0821               	movf	??___flge+1,w
  6179  17E3  00F7               	movwf	___flge@ff2+1
  6180  17E4  0820               	movf	??___flge,w
  6181  17E5  00F6               	movwf	___flge@ff2
  6182  17E6                     l529:
  6183  17E6  3080               	movlw	128
  6184  17E7  06F5               	xorwf	___flge@ff1+3,f
  6185  17E8  3080               	movlw	128
  6186  17E9  06F9               	xorwf	___flge@ff2+3,f
  6187  17EA  0879               	movf	___flge@ff2+3,w
  6188  17EB  0275               	subwf	___flge@ff1+3,w
  6189  17EC  1D03               	skipz
  6190  17ED  2FF8               	goto	u2595
  6191  17EE  0878               	movf	___flge@ff2+2,w
  6192  17EF  0274               	subwf	___flge@ff1+2,w
  6193  17F0  1D03               	skipz
  6194  17F1  2FF8               	goto	u2595
  6195  17F2  0877               	movf	___flge@ff2+1,w
  6196  17F3  0273               	subwf	___flge@ff1+1,w
  6197  17F4  1D03               	skipz
  6198  17F5  2FF8               	goto	u2595
  6199  17F6  0876               	movf	___flge@ff2,w
  6200  17F7  0272               	subwf	___flge@ff1,w
  6201  17F8                     u2595:
  6202  17F8  1803               	skipnc
  6203  17F9  2FFB               	goto	u2591
  6204  17FA  2FFC               	goto	u2590
  6205  17FB                     u2591:
  6206  17FB  2FFE               	goto	l2270
  6207  17FC                     u2590:
  6208  17FC                     l2268:
  6209  17FC  1003               	clrc
  6210  17FD  2FFF               	goto	l530
  6211  17FE                     l2270:
  6212  17FE  1403               	setc
  6213  17FF                     l530:
  6214  17FF  0008               	return
  6215  1800                     __end_of___flge:
  6216                           
  6217                           	psect	text12
  6218  09AD                     __ptext12:	
  6219 ;; *************** function ___fldiv *****************
  6220 ;; Defined at:
  6221 ;;		line 8 in file "C:\Program Files\Microchip\xc8\v2.31\pic\sources\c90\common\sprcdiv.c"
  6222 ;; Parameters:    Size  Location     Type
  6223 ;;  a               4   23[BANK0 ] unsigned int 
  6224 ;;  b               4   27[BANK0 ] unsigned int 
  6225 ;; Auto vars:     Size  Location     Type
  6226 ;;  grs             4   43[BANK0 ] unsigned long 
  6227 ;;  rem             4   36[BANK0 ] unsigned long 
  6228 ;;  new_exp         2   41[BANK0 ] int 
  6229 ;;  aexp            1   48[BANK0 ] unsigned char 
  6230 ;;  bexp            1   47[BANK0 ] unsigned char 
  6231 ;;  sign            1   40[BANK0 ] unsigned char 
  6232 ;; Return value:  Size  Location     Type
  6233 ;;                  4   23[BANK0 ] unsigned char 
  6234 ;; Registers used:
  6235 ;;		wreg, status,2, status,0, btemp+1
  6236 ;; Tracked objects:
  6237 ;;		On entry : 0/0
  6238 ;;		On exit  : 0/0
  6239 ;;		Unchanged: 0/0
  6240 ;; Data sizes:     COMMON   BANK0   BANK1   BANK3   BANK2
  6241 ;;      Params:         0       8       0       0       0
  6242 ;;      Locals:         0      13       0       0       0
  6243 ;;      Temps:          0       5       0       0       0
  6244 ;;      Totals:         0      26       0       0       0
  6245 ;;Total ram usage:       26 bytes
  6246 ;; Hardware stack levels used:    1
  6247 ;; Hardware stack levels required when called:    1
  6248 ;; This function calls:
  6249 ;;		Nothing
  6250 ;; This function is called by:
  6251 ;;		_main
  6252 ;;		_convert
  6253 ;; This function uses a non-reentrant model
  6254 ;;
  6255                           
  6256                           
  6257                           ;psect for function ___fldiv
  6258  09AD                     ___fldiv:
  6259  09AD                     l2316:	
  6260                           ;incstack = 0
  6261                           ; Regs used in ___fldiv: [wreg+status,2+status,0+btemp+1]
  6262                           
  6263  09AD  1283               	bcf	3,5	;RP0=0, select bank0
  6264  09AE  1303               	bcf	3,6	;RP1=0, select bank0
  6265  09AF  083E               	movf	___fldiv@b+3,w
  6266  09B0  3980               	andlw	128
  6267  09B1  00BF               	movwf	??___fldiv
  6268  09B2  083F               	movf	??___fldiv,w
  6269  09B3  00C8               	movwf	___fldiv@sign
  6270  09B4                     l2318:
  6271  09B4  083E               	movf	___fldiv@b+3,w
  6272  09B5  00BF               	movwf	??___fldiv
  6273  09B6  073F               	addwf	??___fldiv,w
  6274  09B7  00C0               	movwf	??___fldiv+1
  6275  09B8  0840               	movf	??___fldiv+1,w
  6276  09B9  00CF               	movwf	___fldiv@bexp
  6277  09BA                     l2320:
  6278  09BA  1FBD               	btfss	___fldiv@b+2,7
  6279  09BB  29BD               	goto	u2701
  6280  09BC  29BE               	goto	u2700
  6281  09BD                     u2701:
  6282  09BD  29BF               	goto	l2324
  6283  09BE                     u2700:
  6284  09BE                     l2322:
  6285  09BE  144F               	bsf	___fldiv@bexp,0
  6286  09BF                     l2324:
  6287  09BF  084F               	movf	___fldiv@bexp,w
  6288  09C0  1903               	btfsc	3,2
  6289  09C1  29C3               	goto	u2711
  6290  09C2  29C4               	goto	u2710
  6291  09C3                     u2711:
  6292  09C3  29D4               	goto	l2334
  6293  09C4                     u2710:
  6294  09C4                     l2326:
  6295  09C4  0A4F               	incf	___fldiv@bexp,w
  6296  09C5  1D03               	btfss	3,2
  6297  09C6  29C8               	goto	u2721
  6298  09C7  29C9               	goto	u2720
  6299  09C8                     u2721:
  6300  09C8  29D1               	goto	l2330
  6301  09C9                     u2720:
  6302  09C9                     l2328:
  6303  09C9  3000               	movlw	0
  6304  09CA  00BE               	movwf	___fldiv@b+3
  6305  09CB  3000               	movlw	0
  6306  09CC  00BD               	movwf	___fldiv@b+2
  6307  09CD  3000               	movlw	0
  6308  09CE  00BC               	movwf	___fldiv@b+1
  6309  09CF  3000               	movlw	0
  6310  09D0  00BB               	movwf	___fldiv@b
  6311  09D1                     l2330:
  6312  09D1  17BD               	bsf	___fldiv@b+2,7
  6313  09D2                     l2332:
  6314  09D2  01BE               	clrf	___fldiv@b+3
  6315  09D3  29DC               	goto	l2336
  6316  09D4                     l2334:
  6317  09D4  3000               	movlw	0
  6318  09D5  00BE               	movwf	___fldiv@b+3
  6319  09D6  3000               	movlw	0
  6320  09D7  00BD               	movwf	___fldiv@b+2
  6321  09D8  3000               	movlw	0
  6322  09D9  00BC               	movwf	___fldiv@b+1
  6323  09DA  3000               	movlw	0
  6324  09DB  00BB               	movwf	___fldiv@b
  6325  09DC                     l2336:
  6326  09DC  083A               	movf	___fldiv@a+3,w
  6327  09DD  3980               	andlw	128
  6328  09DE  00BF               	movwf	??___fldiv
  6329  09DF  083F               	movf	??___fldiv,w
  6330  09E0  06C8               	xorwf	___fldiv@sign,f
  6331  09E1                     l2338:
  6332  09E1  083A               	movf	___fldiv@a+3,w
  6333  09E2  00BF               	movwf	??___fldiv
  6334  09E3  073F               	addwf	??___fldiv,w
  6335  09E4  00C0               	movwf	??___fldiv+1
  6336  09E5  0840               	movf	??___fldiv+1,w
  6337  09E6  00D0               	movwf	___fldiv@aexp
  6338  09E7                     l2340:
  6339  09E7  1FB9               	btfss	___fldiv@a+2,7
  6340  09E8  29EA               	goto	u2731
  6341  09E9  29EB               	goto	u2730
  6342  09EA                     u2731:
  6343  09EA  29EC               	goto	l2344
  6344  09EB                     u2730:
  6345  09EB                     l2342:
  6346  09EB  1450               	bsf	___fldiv@aexp,0
  6347  09EC                     l2344:
  6348  09EC  0850               	movf	___fldiv@aexp,w
  6349  09ED  1903               	btfsc	3,2
  6350  09EE  29F0               	goto	u2741
  6351  09EF  29F1               	goto	u2740
  6352  09F0                     u2741:
  6353  09F0  2A01               	goto	l2354
  6354  09F1                     u2740:
  6355  09F1                     l2346:
  6356  09F1  0A50               	incf	___fldiv@aexp,w
  6357  09F2  1D03               	btfss	3,2
  6358  09F3  29F5               	goto	u2751
  6359  09F4  29F6               	goto	u2750
  6360  09F5                     u2751:
  6361  09F5  29FE               	goto	l2350
  6362  09F6                     u2750:
  6363  09F6                     l2348:
  6364  09F6  3000               	movlw	0
  6365  09F7  00BA               	movwf	___fldiv@a+3
  6366  09F8  3000               	movlw	0
  6367  09F9  00B9               	movwf	___fldiv@a+2
  6368  09FA  3000               	movlw	0
  6369  09FB  00B8               	movwf	___fldiv@a+1
  6370  09FC  3000               	movlw	0
  6371  09FD  00B7               	movwf	___fldiv@a
  6372  09FE                     l2350:
  6373  09FE  17B9               	bsf	___fldiv@a+2,7
  6374  09FF                     l2352:
  6375  09FF  01BA               	clrf	___fldiv@a+3
  6376  0A00  2A09               	goto	l701
  6377  0A01                     l2354:
  6378  0A01  3000               	movlw	0
  6379  0A02  00BA               	movwf	___fldiv@a+3
  6380  0A03  3000               	movlw	0
  6381  0A04  00B9               	movwf	___fldiv@a+2
  6382  0A05  3000               	movlw	0
  6383  0A06  00B8               	movwf	___fldiv@a+1
  6384  0A07  3000               	movlw	0
  6385  0A08  00B7               	movwf	___fldiv@a
  6386  0A09                     l701:
  6387  0A09  083A               	movf	___fldiv@a+3,w
  6388  0A0A  0439               	iorwf	___fldiv@a+2,w
  6389  0A0B  0438               	iorwf	___fldiv@a+1,w
  6390  0A0C  0437               	iorwf	___fldiv@a,w
  6391  0A0D  1D03               	skipz
  6392  0A0E  2A10               	goto	u2761
  6393  0A0F  2A11               	goto	u2760
  6394  0A10                     u2761:
  6395  0A10  2A2A               	goto	l2364
  6396  0A11                     u2760:
  6397  0A11                     l2356:
  6398  0A11  3000               	movlw	0
  6399  0A12  00BE               	movwf	___fldiv@b+3
  6400  0A13  3000               	movlw	0
  6401  0A14  00BD               	movwf	___fldiv@b+2
  6402  0A15  3000               	movlw	0
  6403  0A16  00BC               	movwf	___fldiv@b+1
  6404  0A17  3000               	movlw	0
  6405  0A18  00BB               	movwf	___fldiv@b
  6406  0A19  3080               	movlw	128
  6407  0A1A  04BD               	iorwf	___fldiv@b+2,f
  6408  0A1B  307F               	movlw	127
  6409  0A1C  04BE               	iorwf	___fldiv@b+3,f
  6410  0A1D                     l2358:
  6411  0A1D  0848               	movf	___fldiv@sign,w
  6412  0A1E  00BF               	movwf	??___fldiv
  6413  0A1F  083F               	movf	??___fldiv,w
  6414  0A20  04BE               	iorwf	___fldiv@b+3,f
  6415  0A21                     l2360:
  6416  0A21  083E               	movf	___fldiv@b+3,w
  6417  0A22  00BA               	movwf	?___fldiv+3
  6418  0A23  083D               	movf	___fldiv@b+2,w
  6419  0A24  00B9               	movwf	?___fldiv+2
  6420  0A25  083C               	movf	___fldiv@b+1,w
  6421  0A26  00B8               	movwf	?___fldiv+1
  6422  0A27  083B               	movf	___fldiv@b,w
  6423  0A28  00B7               	movwf	?___fldiv
  6424  0A29  2B89               	goto	l703
  6425  0A2A                     l2364:
  6426  0A2A  084F               	movf	___fldiv@bexp,w
  6427  0A2B  1D03               	btfss	3,2
  6428  0A2C  2A2E               	goto	u2771
  6429  0A2D  2A2F               	goto	u2770
  6430  0A2E                     u2771:
  6431  0A2E  2A38               	goto	l2370
  6432  0A2F                     u2770:
  6433  0A2F                     l2366:
  6434  0A2F  3000               	movlw	0
  6435  0A30  00BA               	movwf	?___fldiv+3
  6436  0A31  3000               	movlw	0
  6437  0A32  00B9               	movwf	?___fldiv+2
  6438  0A33  3000               	movlw	0
  6439  0A34  00B8               	movwf	?___fldiv+1
  6440  0A35  3000               	movlw	0
  6441  0A36  00B7               	movwf	?___fldiv
  6442  0A37  2B89               	goto	l703
  6443  0A38                     l2370:
  6444  0A38  084F               	movf	___fldiv@bexp,w
  6445  0A39  00BF               	movwf	??___fldiv
  6446  0A3A  01C0               	clrf	??___fldiv+1
  6447  0A3B  0840               	movf	??___fldiv+1,w
  6448  0A3C  00C2               	movwf	??___fldiv+3
  6449  0A3D  0850               	movf	___fldiv@aexp,w
  6450  0A3E  023F               	subwf	??___fldiv,w
  6451  0A3F  00C1               	movwf	??___fldiv+2
  6452  0A40  1C03               	skipc
  6453  0A41  03C2               	decf	??___fldiv+3,f
  6454  0A42  0841               	movf	??___fldiv+2,w
  6455  0A43  3E7F               	addlw	127
  6456  0A44  00C9               	movwf	___fldiv@new_exp
  6457  0A45  0842               	movf	??___fldiv+3,w
  6458  0A46  1803               	skipnc
  6459  0A47  3E01               	addlw	1
  6460  0A48  3E00               	addlw	0
  6461  0A49  00CA               	movwf	___fldiv@new_exp+1
  6462  0A4A                     l2372:
  6463  0A4A  083E               	movf	___fldiv@b+3,w
  6464  0A4B  00C7               	movwf	___fldiv@rem+3
  6465  0A4C  083D               	movf	___fldiv@b+2,w
  6466  0A4D  00C6               	movwf	___fldiv@rem+2
  6467  0A4E  083C               	movf	___fldiv@b+1,w
  6468  0A4F  00C5               	movwf	___fldiv@rem+1
  6469  0A50  083B               	movf	___fldiv@b,w
  6470  0A51  00C4               	movwf	___fldiv@rem
  6471  0A52                     l2374:
  6472  0A52  3000               	movlw	0
  6473  0A53  00BE               	movwf	___fldiv@b+3
  6474  0A54  3000               	movlw	0
  6475  0A55  00BD               	movwf	___fldiv@b+2
  6476  0A56  3000               	movlw	0
  6477  0A57  00BC               	movwf	___fldiv@b+1
  6478  0A58  3000               	movlw	0
  6479  0A59  00BB               	movwf	___fldiv@b
  6480  0A5A                     l2376:
  6481  0A5A  3000               	movlw	0
  6482  0A5B  00CE               	movwf	___fldiv@grs+3
  6483  0A5C  3000               	movlw	0
  6484  0A5D  00CD               	movwf	___fldiv@grs+2
  6485  0A5E  3000               	movlw	0
  6486  0A5F  00CC               	movwf	___fldiv@grs+1
  6487  0A60  3000               	movlw	0
  6488  0A61  00CB               	movwf	___fldiv@grs
  6489  0A62                     l2378:
  6490  0A62  01D0               	clrf	___fldiv@aexp
  6491  0A63  2AAE               	goto	l2398
  6492  0A64                     l2380:
  6493  0A64  0850               	movf	___fldiv@aexp,w
  6494  0A65  1903               	btfsc	3,2
  6495  0A66  2A68               	goto	u2781
  6496  0A67  2A69               	goto	u2780
  6497  0A68                     u2781:
  6498  0A68  2A89               	goto	l2390
  6499  0A69                     u2780:
  6500  0A69                     l2382:
  6501  0A69  3001               	movlw	1
  6502  0A6A  00BF               	movwf	??___fldiv
  6503  0A6B                     u2795:
  6504  0A6B  1003               	clrc
  6505  0A6C  0DC4               	rlf	___fldiv@rem,f
  6506  0A6D  0DC5               	rlf	___fldiv@rem+1,f
  6507  0A6E  0DC6               	rlf	___fldiv@rem+2,f
  6508  0A6F  0DC7               	rlf	___fldiv@rem+3,f
  6509  0A70  0BBF               	decfsz	??___fldiv,f
  6510  0A71  2A6B               	goto	u2795
  6511  0A72  3001               	movlw	1
  6512  0A73  00BF               	movwf	??___fldiv
  6513  0A74                     u2805:
  6514  0A74  1003               	clrc
  6515  0A75  0DBB               	rlf	___fldiv@b,f
  6516  0A76  0DBC               	rlf	___fldiv@b+1,f
  6517  0A77  0DBD               	rlf	___fldiv@b+2,f
  6518  0A78  0DBE               	rlf	___fldiv@b+3,f
  6519  0A79  0BBF               	decfsz	??___fldiv,f
  6520  0A7A  2A74               	goto	u2805
  6521  0A7B                     l2384:
  6522  0A7B  1FCE               	btfss	___fldiv@grs+3,7
  6523  0A7C  2A7E               	goto	u2811
  6524  0A7D  2A7F               	goto	u2810
  6525  0A7E                     u2811:
  6526  0A7E  2A80               	goto	l2388
  6527  0A7F                     u2810:
  6528  0A7F                     l2386:
  6529  0A7F  143B               	bsf	___fldiv@b,0
  6530  0A80                     l2388:
  6531  0A80  3001               	movlw	1
  6532  0A81  00BF               	movwf	??___fldiv
  6533  0A82                     u2825:
  6534  0A82  1003               	clrc
  6535  0A83  0DCB               	rlf	___fldiv@grs,f
  6536  0A84  0DCC               	rlf	___fldiv@grs+1,f
  6537  0A85  0DCD               	rlf	___fldiv@grs+2,f
  6538  0A86  0DCE               	rlf	___fldiv@grs+3,f
  6539  0A87  0BBF               	decfsz	??___fldiv,f
  6540  0A88  2A82               	goto	u2825
  6541  0A89                     l2390:
  6542  0A89  083A               	movf	___fldiv@a+3,w
  6543  0A8A  0247               	subwf	___fldiv@rem+3,w
  6544  0A8B  1D03               	skipz
  6545  0A8C  2A97               	goto	u2835
  6546  0A8D  0839               	movf	___fldiv@a+2,w
  6547  0A8E  0246               	subwf	___fldiv@rem+2,w
  6548  0A8F  1D03               	skipz
  6549  0A90  2A97               	goto	u2835
  6550  0A91  0838               	movf	___fldiv@a+1,w
  6551  0A92  0245               	subwf	___fldiv@rem+1,w
  6552  0A93  1D03               	skipz
  6553  0A94  2A97               	goto	u2835
  6554  0A95  0837               	movf	___fldiv@a,w
  6555  0A96  0244               	subwf	___fldiv@rem,w
  6556  0A97                     u2835:
  6557  0A97  1C03               	skipc
  6558  0A98  2A9A               	goto	u2831
  6559  0A99  2A9B               	goto	u2830
  6560  0A9A                     u2831:
  6561  0A9A  2AAA               	goto	l2396
  6562  0A9B                     u2830:
  6563  0A9B                     l2392:
  6564  0A9B  174E               	bsf	___fldiv@grs+3,6
  6565  0A9C                     l2394:
  6566  0A9C  0837               	movf	___fldiv@a,w
  6567  0A9D  02C4               	subwf	___fldiv@rem,f
  6568  0A9E  0838               	movf	___fldiv@a+1,w
  6569  0A9F  1C03               	skipc
  6570  0AA0  0F38               	incfsz	___fldiv@a+1,w
  6571  0AA1  02C5               	subwf	___fldiv@rem+1,f
  6572  0AA2  0839               	movf	___fldiv@a+2,w
  6573  0AA3  1C03               	skipc
  6574  0AA4  0F39               	incfsz	___fldiv@a+2,w
  6575  0AA5  02C6               	subwf	___fldiv@rem+2,f
  6576  0AA6  083A               	movf	___fldiv@a+3,w
  6577  0AA7  1C03               	skipc
  6578  0AA8  0F3A               	incfsz	___fldiv@a+3,w
  6579  0AA9  02C7               	subwf	___fldiv@rem+3,f
  6580  0AAA                     l2396:
  6581  0AAA  3001               	movlw	1
  6582  0AAB  00BF               	movwf	??___fldiv
  6583  0AAC  083F               	movf	??___fldiv,w
  6584  0AAD  07D0               	addwf	___fldiv@aexp,f
  6585  0AAE                     l2398:
  6586  0AAE  301A               	movlw	26
  6587  0AAF  0250               	subwf	___fldiv@aexp,w
  6588  0AB0  1C03               	skipc
  6589  0AB1  2AB3               	goto	u2841
  6590  0AB2  2AB4               	goto	u2840
  6591  0AB3                     u2841:
  6592  0AB3  2A64               	goto	l2380
  6593  0AB4                     u2840:
  6594  0AB4                     l2400:
  6595  0AB4  0847               	movf	___fldiv@rem+3,w
  6596  0AB5  0446               	iorwf	___fldiv@rem+2,w
  6597  0AB6  0445               	iorwf	___fldiv@rem+1,w
  6598  0AB7  0444               	iorwf	___fldiv@rem,w
  6599  0AB8  1903               	skipnz
  6600  0AB9  2ABB               	goto	u2851
  6601  0ABA  2ABC               	goto	u2850
  6602  0ABB                     u2851:
  6603  0ABB  2ADB               	goto	l2414
  6604  0ABC                     u2850:
  6605  0ABC                     l2402:
  6606  0ABC  144B               	bsf	___fldiv@grs,0
  6607  0ABD  2ADB               	goto	l2414
  6608  0ABE                     l2404:
  6609  0ABE  3001               	movlw	1
  6610  0ABF  00BF               	movwf	??___fldiv
  6611  0AC0                     u2865:
  6612  0AC0  1003               	clrc
  6613  0AC1  0DBB               	rlf	___fldiv@b,f
  6614  0AC2  0DBC               	rlf	___fldiv@b+1,f
  6615  0AC3  0DBD               	rlf	___fldiv@b+2,f
  6616  0AC4  0DBE               	rlf	___fldiv@b+3,f
  6617  0AC5  0BBF               	decfsz	??___fldiv,f
  6618  0AC6  2AC0               	goto	u2865
  6619  0AC7                     l2406:
  6620  0AC7  1FCE               	btfss	___fldiv@grs+3,7
  6621  0AC8  2ACA               	goto	u2871
  6622  0AC9  2ACB               	goto	u2870
  6623  0ACA                     u2871:
  6624  0ACA  2ACC               	goto	l2410
  6625  0ACB                     u2870:
  6626  0ACB                     l2408:
  6627  0ACB  143B               	bsf	___fldiv@b,0
  6628  0ACC                     l2410:
  6629  0ACC  3001               	movlw	1
  6630  0ACD  00BF               	movwf	??___fldiv
  6631  0ACE                     u2885:
  6632  0ACE  1003               	clrc
  6633  0ACF  0DCB               	rlf	___fldiv@grs,f
  6634  0AD0  0DCC               	rlf	___fldiv@grs+1,f
  6635  0AD1  0DCD               	rlf	___fldiv@grs+2,f
  6636  0AD2  0DCE               	rlf	___fldiv@grs+3,f
  6637  0AD3  0BBF               	decfsz	??___fldiv,f
  6638  0AD4  2ACE               	goto	u2885
  6639  0AD5                     l2412:
  6640  0AD5  30FF               	movlw	255
  6641  0AD6  07C9               	addwf	___fldiv@new_exp,f
  6642  0AD7  1803               	skipnc
  6643  0AD8  0ACA               	incf	___fldiv@new_exp+1,f
  6644  0AD9  30FF               	movlw	255
  6645  0ADA  07CA               	addwf	___fldiv@new_exp+1,f
  6646  0ADB                     l2414:
  6647  0ADB  1FBD               	btfss	___fldiv@b+2,7
  6648  0ADC  2ADE               	goto	u2891
  6649  0ADD  2ADF               	goto	u2890
  6650  0ADE                     u2891:
  6651  0ADE  2ABE               	goto	l2404
  6652  0ADF                     u2890:
  6653  0ADF                     l2416:
  6654  0ADF  01D0               	clrf	___fldiv@aexp
  6655  0AE0                     l2418:
  6656  0AE0  1FCE               	btfss	___fldiv@grs+3,7
  6657  0AE1  2AE3               	goto	u2901
  6658  0AE2  2AE4               	goto	u2900
  6659  0AE3                     u2901:
  6660  0AE3  2B00               	goto	l2426
  6661  0AE4                     u2900:
  6662  0AE4                     l2420:
  6663  0AE4  30FF               	movlw	255
  6664  0AE5  054B               	andwf	___fldiv@grs,w
  6665  0AE6  00BF               	movwf	??___fldiv
  6666  0AE7  30FF               	movlw	255
  6667  0AE8  054C               	andwf	___fldiv@grs+1,w
  6668  0AE9  00C0               	movwf	??___fldiv+1
  6669  0AEA  30FF               	movlw	255
  6670  0AEB  054D               	andwf	___fldiv@grs+2,w
  6671  0AEC  00C1               	movwf	??___fldiv+2
  6672  0AED  307F               	movlw	127
  6673  0AEE  054E               	andwf	___fldiv@grs+3,w
  6674  0AEF  00C2               	movwf	??___fldiv+3
  6675  0AF0  0842               	movf	??___fldiv+3,w
  6676  0AF1  0441               	iorwf	??___fldiv+2,w
  6677  0AF2  0440               	iorwf	??___fldiv+1,w
  6678  0AF3  043F               	iorwf	??___fldiv,w
  6679  0AF4  1903               	skipnz
  6680  0AF5  2AF7               	goto	u2911
  6681  0AF6  2AF8               	goto	u2910
  6682  0AF7                     u2911:
  6683  0AF7  2AFB               	goto	l717
  6684  0AF8                     u2910:
  6685  0AF8                     l2422:
  6686  0AF8  01D0               	clrf	___fldiv@aexp
  6687  0AF9  0AD0               	incf	___fldiv@aexp,f
  6688  0AFA  2B00               	goto	l2426
  6689  0AFB                     l717:
  6690  0AFB  1C3B               	btfss	___fldiv@b,0
  6691  0AFC  2AFE               	goto	u2921
  6692  0AFD  2AFF               	goto	u2920
  6693  0AFE                     u2921:
  6694  0AFE  2B00               	goto	l2426
  6695  0AFF                     u2920:
  6696  0AFF  2AF8               	goto	l2422
  6697  0B00                     l2426:
  6698  0B00  0850               	movf	___fldiv@aexp,w
  6699  0B01  1903               	btfsc	3,2
  6700  0B02  2B04               	goto	u2931
  6701  0B03  2B05               	goto	u2930
  6702  0B04                     u2931:
  6703  0B04  2B36               	goto	l2436
  6704  0B05                     u2930:
  6705  0B05                     l2428:
  6706  0B05  3001               	movlw	1
  6707  0B06  07BB               	addwf	___fldiv@b,f
  6708  0B07  3000               	movlw	0
  6709  0B08  1803               	skipnc
  6710  0B09  3001               	movlw	1
  6711  0B0A  07BC               	addwf	___fldiv@b+1,f
  6712  0B0B  3000               	movlw	0
  6713  0B0C  1803               	skipnc
  6714  0B0D  3001               	movlw	1
  6715  0B0E  07BD               	addwf	___fldiv@b+2,f
  6716  0B0F  3000               	movlw	0
  6717  0B10  1803               	skipnc
  6718  0B11  3001               	movlw	1
  6719  0B12  07BE               	addwf	___fldiv@b+3,f
  6720  0B13                     l2430:
  6721  0B13  1C3E               	btfss	___fldiv@b+3,0
  6722  0B14  2B16               	goto	u2941
  6723  0B15  2B17               	goto	u2940
  6724  0B16                     u2941:
  6725  0B16  2B36               	goto	l2436
  6726  0B17                     u2940:
  6727  0B17                     l2432:
  6728  0B17  083B               	movf	___fldiv@b,w
  6729  0B18  00BF               	movwf	??___fldiv
  6730  0B19  083C               	movf	___fldiv@b+1,w
  6731  0B1A  00C0               	movwf	??___fldiv+1
  6732  0B1B  083D               	movf	___fldiv@b+2,w
  6733  0B1C  00C1               	movwf	??___fldiv+2
  6734  0B1D  083E               	movf	___fldiv@b+3,w
  6735  0B1E  00C2               	movwf	??___fldiv+3
  6736  0B1F  3001               	movlw	1
  6737  0B20  00C3               	movwf	??___fldiv+4
  6738  0B21                     u2955:
  6739  0B21  0D42               	rlf	??___fldiv+3,w
  6740  0B22  0CC2               	rrf	??___fldiv+3,f
  6741  0B23  0CC1               	rrf	??___fldiv+2,f
  6742  0B24  0CC0               	rrf	??___fldiv+1,f
  6743  0B25  0CBF               	rrf	??___fldiv,f
  6744  0B26                     u2950:
  6745  0B26  0BC3               	decfsz	??___fldiv+4,f
  6746  0B27  2B21               	goto	u2955
  6747  0B28  0842               	movf	??___fldiv+3,w
  6748  0B29  00BE               	movwf	___fldiv@b+3
  6749  0B2A  0841               	movf	??___fldiv+2,w
  6750  0B2B  00BD               	movwf	___fldiv@b+2
  6751  0B2C  0840               	movf	??___fldiv+1,w
  6752  0B2D  00BC               	movwf	___fldiv@b+1
  6753  0B2E  083F               	movf	??___fldiv,w
  6754  0B2F  00BB               	movwf	___fldiv@b
  6755  0B30                     l2434:
  6756  0B30  3001               	movlw	1
  6757  0B31  07C9               	addwf	___fldiv@new_exp,f
  6758  0B32  1803               	skipnc
  6759  0B33  0ACA               	incf	___fldiv@new_exp+1,f
  6760  0B34  3000               	movlw	0
  6761  0B35  07CA               	addwf	___fldiv@new_exp+1,f
  6762  0B36                     l2436:
  6763  0B36  084A               	movf	___fldiv@new_exp+1,w
  6764  0B37  3A80               	xorlw	128
  6765  0B38  00FF               	movwf	btemp+1
  6766  0B39  3080               	movlw	128
  6767  0B3A  027F               	subwf	btemp+1,w
  6768  0B3B  1D03               	skipz
  6769  0B3C  2B3F               	goto	u2965
  6770  0B3D  30FF               	movlw	255
  6771  0B3E  0249               	subwf	___fldiv@new_exp,w
  6772  0B3F                     u2965:
  6773  0B3F  1C03               	skipc
  6774  0B40  2B42               	goto	u2961
  6775  0B41  2B43               	goto	u2960
  6776  0B42                     u2961:
  6777  0B42  2B51               	goto	l2440
  6778  0B43                     u2960:
  6779  0B43                     l2438:
  6780  0B43  30FF               	movlw	255
  6781  0B44  1283               	bcf	3,5	;RP0=0, select bank0
  6782  0B45  1303               	bcf	3,6	;RP1=0, select bank0
  6783  0B46  00C9               	movwf	___fldiv@new_exp
  6784  0B47  3000               	movlw	0
  6785  0B48  00CA               	movwf	___fldiv@new_exp+1
  6786  0B49  3000               	movlw	0
  6787  0B4A  00BE               	movwf	___fldiv@b+3
  6788  0B4B  3000               	movlw	0
  6789  0B4C  00BD               	movwf	___fldiv@b+2
  6790  0B4D  3000               	movlw	0
  6791  0B4E  00BC               	movwf	___fldiv@b+1
  6792  0B4F  3000               	movlw	0
  6793  0B50  00BB               	movwf	___fldiv@b
  6794  0B51                     l2440:
  6795  0B51  1283               	bcf	3,5	;RP0=0, select bank0
  6796  0B52  1303               	bcf	3,6	;RP1=0, select bank0
  6797  0B53  084A               	movf	___fldiv@new_exp+1,w
  6798  0B54  3A80               	xorlw	128
  6799  0B55  00FF               	movwf	btemp+1
  6800  0B56  3080               	movlw	128
  6801  0B57  027F               	subwf	btemp+1,w
  6802  0B58  1D03               	skipz
  6803  0B59  2B5C               	goto	u2975
  6804  0B5A  3001               	movlw	1
  6805  0B5B  0249               	subwf	___fldiv@new_exp,w
  6806  0B5C                     u2975:
  6807  0B5C  1803               	skipnc
  6808  0B5D  2B5F               	goto	u2971
  6809  0B5E  2B60               	goto	u2970
  6810  0B5F                     u2971:
  6811  0B5F  2B6D               	goto	l723
  6812  0B60                     u2970:
  6813  0B60                     l2442:
  6814  0B60  1283               	bcf	3,5	;RP0=0, select bank0
  6815  0B61  1303               	bcf	3,6	;RP1=0, select bank0
  6816  0B62  01C9               	clrf	___fldiv@new_exp
  6817  0B63  01CA               	clrf	___fldiv@new_exp+1
  6818  0B64                     l2444:
  6819  0B64  3000               	movlw	0
  6820  0B65  00BE               	movwf	___fldiv@b+3
  6821  0B66  3000               	movlw	0
  6822  0B67  00BD               	movwf	___fldiv@b+2
  6823  0B68  3000               	movlw	0
  6824  0B69  00BC               	movwf	___fldiv@b+1
  6825  0B6A  3000               	movlw	0
  6826  0B6B  00BB               	movwf	___fldiv@b
  6827  0B6C                     l2446:
  6828  0B6C  01C8               	clrf	___fldiv@sign
  6829  0B6D                     l723:
  6830  0B6D  1283               	bcf	3,5	;RP0=0, select bank0
  6831  0B6E  1303               	bcf	3,6	;RP1=0, select bank0
  6832  0B6F  0849               	movf	___fldiv@new_exp,w
  6833  0B70  00BF               	movwf	??___fldiv
  6834  0B71  083F               	movf	??___fldiv,w
  6835  0B72  00CF               	movwf	___fldiv@bexp
  6836  0B73                     l2448:
  6837  0B73  1C4F               	btfss	___fldiv@bexp,0
  6838  0B74  2B76               	goto	u2981
  6839  0B75  2B77               	goto	u2980
  6840  0B76                     u2981:
  6841  0B76  2B79               	goto	l2452
  6842  0B77                     u2980:
  6843  0B77                     l2450:
  6844  0B77  17BD               	bsf	___fldiv@b+2,7
  6845  0B78  2B7D               	goto	l725
  6846  0B79                     l2452:
  6847  0B79  307F               	movlw	127
  6848  0B7A  00BF               	movwf	??___fldiv
  6849  0B7B  083F               	movf	??___fldiv,w
  6850  0B7C  05BD               	andwf	___fldiv@b+2,f
  6851  0B7D                     l725:
  6852  0B7D  084F               	movf	___fldiv@bexp,w
  6853  0B7E  00BF               	movwf	??___fldiv
  6854  0B7F  1003               	clrc
  6855  0B80  0C3F               	rrf	??___fldiv,w
  6856  0B81  00C0               	movwf	??___fldiv+1
  6857  0B82  0840               	movf	??___fldiv+1,w
  6858  0B83  00BE               	movwf	___fldiv@b+3
  6859  0B84  0848               	movf	___fldiv@sign,w
  6860  0B85  00BF               	movwf	??___fldiv
  6861  0B86  083F               	movf	??___fldiv,w
  6862  0B87  04BE               	iorwf	___fldiv@b+3,f
  6863  0B88  2A21               	goto	l2360
  6864  0B89                     l703:
  6865  0B89  0008               	return
  6866  0B8A                     __end_of___fldiv:
  6867                           
  6868                           	psect	text13
  6869  1608                     __ptext13:	
  6870 ;; *************** function ___awdiv *****************
  6871 ;; Defined at:
  6872 ;;		line 5 in file "C:\Program Files\Microchip\xc8\v2.31\pic\sources\c90\common\awdiv.c"
  6873 ;; Parameters:    Size  Location     Type
  6874 ;;  divisor         2    2[COMMON] int 
  6875 ;;  dividend        2    4[COMMON] int 
  6876 ;; Auto vars:     Size  Location     Type
  6877 ;;  quotient        2    2[BANK0 ] int 
  6878 ;;  sign            1    1[BANK0 ] unsigned char 
  6879 ;;  counter         1    0[BANK0 ] unsigned char 
  6880 ;; Return value:  Size  Location     Type
  6881 ;;                  2    2[COMMON] int 
  6882 ;; Registers used:
  6883 ;;		wreg, status,2, status,0
  6884 ;; Tracked objects:
  6885 ;;		On entry : 0/0
  6886 ;;		On exit  : 0/0
  6887 ;;		Unchanged: 0/0
  6888 ;; Data sizes:     COMMON   BANK0   BANK1   BANK3   BANK2
  6889 ;;      Params:         4       0       0       0       0
  6890 ;;      Locals:         0       4       0       0       0
  6891 ;;      Temps:          1       0       0       0       0
  6892 ;;      Totals:         5       4       0       0       0
  6893 ;;Total ram usage:        9 bytes
  6894 ;; Hardware stack levels used:    1
  6895 ;; Hardware stack levels required when called:    1
  6896 ;; This function calls:
  6897 ;;		Nothing
  6898 ;; This function is called by:
  6899 ;;		_convert
  6900 ;; This function uses a non-reentrant model
  6901 ;;
  6902                           
  6903                           
  6904                           ;psect for function ___awdiv
  6905  1608                     ___awdiv:
  6906  1608                     l3036:	
  6907                           ;incstack = 0
  6908                           ; Regs used in ___awdiv: [wreg+status,2+status,0]
  6909                           
  6910  1608  1283               	bcf	3,5	;RP0=0, select bank0
  6911  1609  1303               	bcf	3,6	;RP1=0, select bank0
  6912  160A  01A1               	clrf	___awdiv@sign
  6913  160B                     l3038:
  6914  160B  1FF3               	btfss	___awdiv@divisor+1,7
  6915  160C  2E0E               	goto	u3751
  6916  160D  2E0F               	goto	u3750
  6917  160E                     u3751:
  6918  160E  2E16               	goto	l3044
  6919  160F                     u3750:
  6920  160F                     l3040:
  6921  160F  09F2               	comf	___awdiv@divisor,f
  6922  1610  09F3               	comf	___awdiv@divisor+1,f
  6923  1611  0AF2               	incf	___awdiv@divisor,f
  6924  1612  1903               	skipnz
  6925  1613  0AF3               	incf	___awdiv@divisor+1,f
  6926  1614                     l3042:
  6927  1614  01A1               	clrf	___awdiv@sign
  6928  1615  0AA1               	incf	___awdiv@sign,f
  6929  1616                     l3044:
  6930  1616  1FF5               	btfss	___awdiv@dividend+1,7
  6931  1617  2E19               	goto	u3761
  6932  1618  2E1A               	goto	u3760
  6933  1619                     u3761:
  6934  1619  2E23               	goto	l3050
  6935  161A                     u3760:
  6936  161A                     l3046:
  6937  161A  09F4               	comf	___awdiv@dividend,f
  6938  161B  09F5               	comf	___awdiv@dividend+1,f
  6939  161C  0AF4               	incf	___awdiv@dividend,f
  6940  161D  1903               	skipnz
  6941  161E  0AF5               	incf	___awdiv@dividend+1,f
  6942  161F                     l3048:
  6943  161F  3001               	movlw	1
  6944  1620  00F6               	movwf	??___awdiv
  6945  1621  0876               	movf	??___awdiv,w
  6946  1622  06A1               	xorwf	___awdiv@sign,f
  6947  1623                     l3050:
  6948  1623  01A2               	clrf	___awdiv@quotient
  6949  1624  01A3               	clrf	___awdiv@quotient+1
  6950  1625                     l3052:
  6951  1625  0872               	movf	___awdiv@divisor,w
  6952  1626  0473               	iorwf	___awdiv@divisor+1,w
  6953  1627  1903               	btfsc	3,2
  6954  1628  2E2A               	goto	u3771
  6955  1629  2E2B               	goto	u3770
  6956  162A                     u3771:
  6957  162A  2E62               	goto	l3072
  6958  162B                     u3770:
  6959  162B                     l3054:
  6960  162B  01A0               	clrf	___awdiv@counter
  6961  162C  0AA0               	incf	___awdiv@counter,f
  6962  162D  2E39               	goto	l3060
  6963  162E                     l3056:
  6964  162E  3001               	movlw	1
  6965  162F                     u3785:
  6966  162F  1003               	clrc
  6967  1630  0DF2               	rlf	___awdiv@divisor,f
  6968  1631  0DF3               	rlf	___awdiv@divisor+1,f
  6969  1632  3EFF               	addlw	-1
  6970  1633  1D03               	skipz
  6971  1634  2E2F               	goto	u3785
  6972  1635                     l3058:
  6973  1635  3001               	movlw	1
  6974  1636  00F6               	movwf	??___awdiv
  6975  1637  0876               	movf	??___awdiv,w
  6976  1638  07A0               	addwf	___awdiv@counter,f
  6977  1639                     l3060:
  6978  1639  1FF3               	btfss	___awdiv@divisor+1,7
  6979  163A  2E3C               	goto	u3791
  6980  163B  2E3D               	goto	u3790
  6981  163C                     u3791:
  6982  163C  2E2E               	goto	l3056
  6983  163D                     u3790:
  6984  163D                     l3062:
  6985  163D  3001               	movlw	1
  6986  163E                     u3805:
  6987  163E  1003               	clrc
  6988  163F  0DA2               	rlf	___awdiv@quotient,f
  6989  1640  0DA3               	rlf	___awdiv@quotient+1,f
  6990  1641  3EFF               	addlw	-1
  6991  1642  1D03               	skipz
  6992  1643  2E3E               	goto	u3805
  6993  1644  0873               	movf	___awdiv@divisor+1,w
  6994  1645  0275               	subwf	___awdiv@dividend+1,w
  6995  1646  1D03               	skipz
  6996  1647  2E4A               	goto	u3815
  6997  1648  0872               	movf	___awdiv@divisor,w
  6998  1649  0274               	subwf	___awdiv@dividend,w
  6999  164A                     u3815:
  7000  164A  1C03               	skipc
  7001  164B  2E4D               	goto	u3811
  7002  164C  2E4E               	goto	u3810
  7003  164D                     u3811:
  7004  164D  2E55               	goto	l3068
  7005  164E                     u3810:
  7006  164E                     l3064:
  7007  164E  0872               	movf	___awdiv@divisor,w
  7008  164F  02F4               	subwf	___awdiv@dividend,f
  7009  1650  0873               	movf	___awdiv@divisor+1,w
  7010  1651  1C03               	skipc
  7011  1652  03F5               	decf	___awdiv@dividend+1,f
  7012  1653  02F5               	subwf	___awdiv@dividend+1,f
  7013  1654                     l3066:
  7014  1654  1422               	bsf	___awdiv@quotient,0
  7015  1655                     l3068:
  7016  1655  3001               	movlw	1
  7017  1656                     u3825:
  7018  1656  1003               	clrc
  7019  1657  0CF3               	rrf	___awdiv@divisor+1,f
  7020  1658  0CF2               	rrf	___awdiv@divisor,f
  7021  1659  3EFF               	addlw	-1
  7022  165A  1D03               	skipz
  7023  165B  2E56               	goto	u3825
  7024  165C                     l3070:
  7025  165C  3001               	movlw	1
  7026  165D  02A0               	subwf	___awdiv@counter,f
  7027  165E  1D03               	btfss	3,2
  7028  165F  2E61               	goto	u3831
  7029  1660  2E62               	goto	u3830
  7030  1661                     u3831:
  7031  1661  2E3D               	goto	l3062
  7032  1662                     u3830:
  7033  1662                     l3072:
  7034  1662  0821               	movf	___awdiv@sign,w
  7035  1663  1903               	btfsc	3,2
  7036  1664  2E66               	goto	u3841
  7037  1665  2E67               	goto	u3840
  7038  1666                     u3841:
  7039  1666  2E6C               	goto	l3076
  7040  1667                     u3840:
  7041  1667                     l3074:
  7042  1667  09A2               	comf	___awdiv@quotient,f
  7043  1668  09A3               	comf	___awdiv@quotient+1,f
  7044  1669  0AA2               	incf	___awdiv@quotient,f
  7045  166A  1903               	skipnz
  7046  166B  0AA3               	incf	___awdiv@quotient+1,f
  7047  166C                     l3076:
  7048  166C  0823               	movf	___awdiv@quotient+1,w
  7049  166D  00F3               	movwf	?___awdiv+1
  7050  166E  0822               	movf	___awdiv@quotient,w
  7051  166F  00F2               	movwf	?___awdiv
  7052  1670                     l505:
  7053  1670  0008               	return
  7054  1671                     __end_of___awdiv:
  7055                           
  7056                           	psect	text14
  7057  083E                     __ptext14:	
  7058 ;; *************** function _Select_ch *****************
  7059 ;; Defined at:
  7060 ;;		line 107 in file "ADC_LIB.c"
  7061 ;; Parameters:    Size  Location     Type
  7062 ;;  channel         1    wreg     unsigned char 
  7063 ;; Auto vars:     Size  Location     Type
  7064 ;;  channel         1    4[COMMON] unsigned char 
  7065 ;; Return value:  Size  Location     Type
  7066 ;;                  1    wreg      void 
  7067 ;; Registers used:
  7068 ;;		wreg, fsr0l, fsr0h, status,2, status,0
  7069 ;; Tracked objects:
  7070 ;;		On entry : 0/0
  7071 ;;		On exit  : 0/0
  7072 ;;		Unchanged: 0/0
  7073 ;; Data sizes:     COMMON   BANK0   BANK1   BANK3   BANK2
  7074 ;;      Params:         0       0       0       0       0
  7075 ;;      Locals:         1       0       0       0       0
  7076 ;;      Temps:          2       0       0       0       0
  7077 ;;      Totals:         3       0       0       0       0
  7078 ;;Total ram usage:        3 bytes
  7079 ;; Hardware stack levels used:    1
  7080 ;; Hardware stack levels required when called:    1
  7081 ;; This function calls:
  7082 ;;		Nothing
  7083 ;; This function is called by:
  7084 ;;		_main
  7085 ;; This function uses a non-reentrant model
  7086 ;;
  7087                           
  7088                           
  7089                           ;psect for function _Select_ch
  7090  083E                     _Select_ch:
  7091                           
  7092                           ;incstack = 0
  7093                           ; Regs used in _Select_ch: [wreg-fsr0h+status,2+status,0]
  7094                           ;Select_ch@channel stored from wreg
  7095  083E  00F4               	movwf	Select_ch@channel
  7096  083F                     l2678:
  7097                           
  7098                           ;ADC_LIB.c: 108:     switch (channel) {
  7099  083F  28B0               	goto	l2682
  7100  0840                     l198:	
  7101                           ;ADC_LIB.c: 109:         case 0:
  7102                           
  7103                           
  7104                           ;ADC_LIB.c: 110:             ADCON0bits.CHS0 = 0;
  7105  0840  1283               	bcf	3,5	;RP0=0, select bank0
  7106  0841  1303               	bcf	3,6	;RP1=0, select bank0
  7107  0842  111F               	bcf	31,2	;volatile
  7108                           
  7109                           ;ADC_LIB.c: 111:             ADCON0bits.CHS1 = 0;
  7110  0843  119F               	bcf	31,3	;volatile
  7111                           
  7112                           ;ADC_LIB.c: 112:             ADCON0bits.CHS2 = 0;
  7113  0844  121F               	bcf	31,4	;volatile
  7114                           
  7115                           ;ADC_LIB.c: 113:             ADCON0bits.CHS3 = 0;
  7116  0845  129F               	bcf	31,5	;volatile
  7117                           
  7118                           ;ADC_LIB.c: 114:             break;
  7119  0846  28EA               	goto	l199
  7120  0847                     l200:	
  7121                           ;ADC_LIB.c: 115:         case 1:
  7122                           
  7123                           
  7124                           ;ADC_LIB.c: 116:             ADCON0bits.CHS0 = 1;
  7125  0847  1283               	bcf	3,5	;RP0=0, select bank0
  7126  0848  1303               	bcf	3,6	;RP1=0, select bank0
  7127  0849  151F               	bsf	31,2	;volatile
  7128                           
  7129                           ;ADC_LIB.c: 117:             ADCON0bits.CHS1 = 0;
  7130  084A  119F               	bcf	31,3	;volatile
  7131                           
  7132                           ;ADC_LIB.c: 118:             ADCON0bits.CHS2 = 0;
  7133  084B  121F               	bcf	31,4	;volatile
  7134                           
  7135                           ;ADC_LIB.c: 119:             ADCON0bits.CHS3 = 0;
  7136  084C  129F               	bcf	31,5	;volatile
  7137                           
  7138                           ;ADC_LIB.c: 120:             break;
  7139  084D  28EA               	goto	l199
  7140  084E                     l201:	
  7141                           ;ADC_LIB.c: 121:         case 2:
  7142                           
  7143                           
  7144                           ;ADC_LIB.c: 122:             ADCON0bits.CHS0 = 0;
  7145  084E  1283               	bcf	3,5	;RP0=0, select bank0
  7146  084F  1303               	bcf	3,6	;RP1=0, select bank0
  7147  0850  111F               	bcf	31,2	;volatile
  7148                           
  7149                           ;ADC_LIB.c: 123:             ADCON0bits.CHS1 = 1;
  7150  0851  159F               	bsf	31,3	;volatile
  7151                           
  7152                           ;ADC_LIB.c: 124:             ADCON0bits.CHS2 = 0;
  7153  0852  121F               	bcf	31,4	;volatile
  7154                           
  7155                           ;ADC_LIB.c: 125:             ADCON0bits.CHS3 = 0;
  7156  0853  129F               	bcf	31,5	;volatile
  7157                           
  7158                           ;ADC_LIB.c: 126:             break;
  7159  0854  28EA               	goto	l199
  7160  0855                     l202:	
  7161                           ;ADC_LIB.c: 127:         case 3:
  7162                           
  7163                           
  7164                           ;ADC_LIB.c: 128:             ADCON0bits.CHS0 = 1;
  7165  0855  1283               	bcf	3,5	;RP0=0, select bank0
  7166  0856  1303               	bcf	3,6	;RP1=0, select bank0
  7167  0857  151F               	bsf	31,2	;volatile
  7168                           
  7169                           ;ADC_LIB.c: 129:             ADCON0bits.CHS1 = 1;
  7170  0858  159F               	bsf	31,3	;volatile
  7171                           
  7172                           ;ADC_LIB.c: 130:             ADCON0bits.CHS2 = 0;
  7173  0859  121F               	bcf	31,4	;volatile
  7174                           
  7175                           ;ADC_LIB.c: 131:             ADCON0bits.CHS3 = 0;
  7176  085A  129F               	bcf	31,5	;volatile
  7177                           
  7178                           ;ADC_LIB.c: 132:             break;
  7179  085B  28EA               	goto	l199
  7180  085C                     l203:	
  7181                           ;ADC_LIB.c: 133:         case 4:
  7182                           
  7183                           
  7184                           ;ADC_LIB.c: 134:             ADCON0bits.CHS0 = 0;
  7185  085C  1283               	bcf	3,5	;RP0=0, select bank0
  7186  085D  1303               	bcf	3,6	;RP1=0, select bank0
  7187  085E  111F               	bcf	31,2	;volatile
  7188                           
  7189                           ;ADC_LIB.c: 135:             ADCON0bits.CHS1 = 0;
  7190  085F  119F               	bcf	31,3	;volatile
  7191                           
  7192                           ;ADC_LIB.c: 136:             ADCON0bits.CHS2 = 1;
  7193  0860  161F               	bsf	31,4	;volatile
  7194                           
  7195                           ;ADC_LIB.c: 137:             ADCON0bits.CHS3 = 0;
  7196  0861  129F               	bcf	31,5	;volatile
  7197                           
  7198                           ;ADC_LIB.c: 138:             break;
  7199  0862  28EA               	goto	l199
  7200  0863                     l204:	
  7201                           ;ADC_LIB.c: 139:         case 5:
  7202                           
  7203                           
  7204                           ;ADC_LIB.c: 140:             ADCON0bits.CHS0 = 1;
  7205  0863  1283               	bcf	3,5	;RP0=0, select bank0
  7206  0864  1303               	bcf	3,6	;RP1=0, select bank0
  7207  0865  151F               	bsf	31,2	;volatile
  7208                           
  7209                           ;ADC_LIB.c: 141:             ADCON0bits.CHS1 = 0;
  7210  0866  119F               	bcf	31,3	;volatile
  7211                           
  7212                           ;ADC_LIB.c: 142:             ADCON0bits.CHS2 = 1;
  7213  0867  161F               	bsf	31,4	;volatile
  7214                           
  7215                           ;ADC_LIB.c: 143:             ADCON0bits.CHS3 = 0;
  7216  0868  129F               	bcf	31,5	;volatile
  7217                           
  7218                           ;ADC_LIB.c: 144:             break;
  7219  0869  28EA               	goto	l199
  7220  086A                     l205:	
  7221                           ;ADC_LIB.c: 145:         case 6:
  7222                           
  7223                           
  7224                           ;ADC_LIB.c: 146:             ADCON0bits.CHS0 = 0;
  7225  086A  1283               	bcf	3,5	;RP0=0, select bank0
  7226  086B  1303               	bcf	3,6	;RP1=0, select bank0
  7227  086C  111F               	bcf	31,2	;volatile
  7228                           
  7229                           ;ADC_LIB.c: 147:             ADCON0bits.CHS1 = 1;
  7230  086D  159F               	bsf	31,3	;volatile
  7231                           
  7232                           ;ADC_LIB.c: 148:             ADCON0bits.CHS2 = 1;
  7233  086E  161F               	bsf	31,4	;volatile
  7234                           
  7235                           ;ADC_LIB.c: 149:             ADCON0bits.CHS3 = 0;
  7236  086F  129F               	bcf	31,5	;volatile
  7237                           
  7238                           ;ADC_LIB.c: 150:             break;
  7239  0870  28EA               	goto	l199
  7240  0871                     l206:	
  7241                           ;ADC_LIB.c: 151:         case 7:
  7242                           
  7243                           
  7244                           ;ADC_LIB.c: 152:             ADCON0bits.CHS0 = 1;
  7245  0871  1283               	bcf	3,5	;RP0=0, select bank0
  7246  0872  1303               	bcf	3,6	;RP1=0, select bank0
  7247  0873  151F               	bsf	31,2	;volatile
  7248                           
  7249                           ;ADC_LIB.c: 153:             ADCON0bits.CHS1 = 1;
  7250  0874  159F               	bsf	31,3	;volatile
  7251                           
  7252                           ;ADC_LIB.c: 154:             ADCON0bits.CHS2 = 1;
  7253  0875  161F               	bsf	31,4	;volatile
  7254                           
  7255                           ;ADC_LIB.c: 155:             ADCON0bits.CHS3 = 0;
  7256  0876  129F               	bcf	31,5	;volatile
  7257                           
  7258                           ;ADC_LIB.c: 156:             break;
  7259  0877  28EA               	goto	l199
  7260  0878                     l207:	
  7261                           ;ADC_LIB.c: 157:         case 8:
  7262                           
  7263                           
  7264                           ;ADC_LIB.c: 158:             ADCON0bits.CHS0 = 0;
  7265  0878  1283               	bcf	3,5	;RP0=0, select bank0
  7266  0879  1303               	bcf	3,6	;RP1=0, select bank0
  7267  087A  111F               	bcf	31,2	;volatile
  7268                           
  7269                           ;ADC_LIB.c: 159:             ADCON0bits.CHS1 = 0;
  7270  087B  119F               	bcf	31,3	;volatile
  7271                           
  7272                           ;ADC_LIB.c: 160:             ADCON0bits.CHS2 = 0;
  7273  087C  121F               	bcf	31,4	;volatile
  7274                           
  7275                           ;ADC_LIB.c: 161:             ADCON0bits.CHS3 = 1;
  7276  087D  169F               	bsf	31,5	;volatile
  7277                           
  7278                           ;ADC_LIB.c: 162:             break;
  7279  087E  28EA               	goto	l199
  7280  087F                     l208:	
  7281                           ;ADC_LIB.c: 163:         case 9:
  7282                           
  7283                           
  7284                           ;ADC_LIB.c: 164:             ADCON0bits.CHS0 = 1;
  7285  087F  1283               	bcf	3,5	;RP0=0, select bank0
  7286  0880  1303               	bcf	3,6	;RP1=0, select bank0
  7287  0881  151F               	bsf	31,2	;volatile
  7288                           
  7289                           ;ADC_LIB.c: 165:             ADCON0bits.CHS1 = 0;
  7290  0882  119F               	bcf	31,3	;volatile
  7291                           
  7292                           ;ADC_LIB.c: 166:             ADCON0bits.CHS2 = 0;
  7293  0883  121F               	bcf	31,4	;volatile
  7294                           
  7295                           ;ADC_LIB.c: 167:             ADCON0bits.CHS3 = 1;
  7296  0884  169F               	bsf	31,5	;volatile
  7297                           
  7298                           ;ADC_LIB.c: 168:             break;
  7299  0885  28EA               	goto	l199
  7300  0886                     l209:	
  7301                           ;ADC_LIB.c: 169:         case 10:
  7302                           
  7303                           
  7304                           ;ADC_LIB.c: 170:             ADCON0bits.CHS0 = 0;
  7305  0886  1283               	bcf	3,5	;RP0=0, select bank0
  7306  0887  1303               	bcf	3,6	;RP1=0, select bank0
  7307  0888  111F               	bcf	31,2	;volatile
  7308                           
  7309                           ;ADC_LIB.c: 171:             ADCON0bits.CHS1 = 1;
  7310  0889  159F               	bsf	31,3	;volatile
  7311                           
  7312                           ;ADC_LIB.c: 172:             ADCON0bits.CHS2 = 0;
  7313  088A  121F               	bcf	31,4	;volatile
  7314                           
  7315                           ;ADC_LIB.c: 173:             ADCON0bits.CHS3 = 1;
  7316  088B  169F               	bsf	31,5	;volatile
  7317                           
  7318                           ;ADC_LIB.c: 174:             break;
  7319  088C  28EA               	goto	l199
  7320  088D                     l210:	
  7321                           ;ADC_LIB.c: 175:         case 11:
  7322                           
  7323                           
  7324                           ;ADC_LIB.c: 176:             ADCON0bits.CHS0 = 1;
  7325  088D  1283               	bcf	3,5	;RP0=0, select bank0
  7326  088E  1303               	bcf	3,6	;RP1=0, select bank0
  7327  088F  151F               	bsf	31,2	;volatile
  7328                           
  7329                           ;ADC_LIB.c: 177:             ADCON0bits.CHS1 = 1;
  7330  0890  159F               	bsf	31,3	;volatile
  7331                           
  7332                           ;ADC_LIB.c: 178:             ADCON0bits.CHS2 = 0;
  7333  0891  121F               	bcf	31,4	;volatile
  7334                           
  7335                           ;ADC_LIB.c: 179:             ADCON0bits.CHS3 = 1;
  7336  0892  169F               	bsf	31,5	;volatile
  7337                           
  7338                           ;ADC_LIB.c: 180:             break;
  7339  0893  28EA               	goto	l199
  7340  0894                     l211:	
  7341                           ;ADC_LIB.c: 181:         case 12:
  7342                           
  7343                           
  7344                           ;ADC_LIB.c: 182:             ADCON0bits.CHS0 = 0;
  7345  0894  1283               	bcf	3,5	;RP0=0, select bank0
  7346  0895  1303               	bcf	3,6	;RP1=0, select bank0
  7347  0896  111F               	bcf	31,2	;volatile
  7348                           
  7349                           ;ADC_LIB.c: 183:             ADCON0bits.CHS1 = 0;
  7350  0897  119F               	bcf	31,3	;volatile
  7351                           
  7352                           ;ADC_LIB.c: 184:             ADCON0bits.CHS2 = 1;
  7353  0898  161F               	bsf	31,4	;volatile
  7354                           
  7355                           ;ADC_LIB.c: 185:             ADCON0bits.CHS3 = 1;
  7356  0899  169F               	bsf	31,5	;volatile
  7357                           
  7358                           ;ADC_LIB.c: 186:             break;
  7359  089A  28EA               	goto	l199
  7360  089B                     l212:	
  7361                           ;ADC_LIB.c: 187:         case 13:
  7362                           
  7363                           
  7364                           ;ADC_LIB.c: 188:             ADCON0bits.CHS0 = 1;
  7365  089B  1283               	bcf	3,5	;RP0=0, select bank0
  7366  089C  1303               	bcf	3,6	;RP1=0, select bank0
  7367  089D  151F               	bsf	31,2	;volatile
  7368                           
  7369                           ;ADC_LIB.c: 189:             ADCON0bits.CHS1 = 0;
  7370  089E  119F               	bcf	31,3	;volatile
  7371                           
  7372                           ;ADC_LIB.c: 190:             ADCON0bits.CHS2 = 1;
  7373  089F  161F               	bsf	31,4	;volatile
  7374                           
  7375                           ;ADC_LIB.c: 191:             ADCON0bits.CHS3 = 1;
  7376  08A0  169F               	bsf	31,5	;volatile
  7377                           
  7378                           ;ADC_LIB.c: 192:             break;
  7379  08A1  28EA               	goto	l199
  7380  08A2                     l213:	
  7381                           ;ADC_LIB.c: 193:         case 14:
  7382                           
  7383                           
  7384                           ;ADC_LIB.c: 194:             ADCON0bits.CHS0 = 0;
  7385  08A2  1283               	bcf	3,5	;RP0=0, select bank0
  7386  08A3  1303               	bcf	3,6	;RP1=0, select bank0
  7387  08A4  111F               	bcf	31,2	;volatile
  7388                           
  7389                           ;ADC_LIB.c: 195:             ADCON0bits.CHS1 = 1;
  7390  08A5  159F               	bsf	31,3	;volatile
  7391                           
  7392                           ;ADC_LIB.c: 196:             ADCON0bits.CHS2 = 1;
  7393  08A6  161F               	bsf	31,4	;volatile
  7394                           
  7395                           ;ADC_LIB.c: 197:             ADCON0bits.CHS3 = 1;
  7396  08A7  169F               	bsf	31,5	;volatile
  7397                           
  7398                           ;ADC_LIB.c: 198:             break;
  7399  08A8  28EA               	goto	l199
  7400  08A9                     l214:	
  7401                           ;ADC_LIB.c: 199:         case 15:
  7402                           
  7403                           
  7404                           ;ADC_LIB.c: 200:             ADCON0bits.CHS0 = 1;
  7405  08A9  1283               	bcf	3,5	;RP0=0, select bank0
  7406  08AA  1303               	bcf	3,6	;RP1=0, select bank0
  7407  08AB  151F               	bsf	31,2	;volatile
  7408                           
  7409                           ;ADC_LIB.c: 201:             ADCON0bits.CHS1 = 1;
  7410  08AC  159F               	bsf	31,3	;volatile
  7411                           
  7412                           ;ADC_LIB.c: 202:             ADCON0bits.CHS2 = 1;
  7413  08AD  161F               	bsf	31,4	;volatile
  7414                           
  7415                           ;ADC_LIB.c: 203:             ADCON0bits.CHS3 = 1;
  7416  08AE  169F               	bsf	31,5	;volatile
  7417                           
  7418                           ;ADC_LIB.c: 204:             break;
  7419  08AF  28EA               	goto	l199
  7420  08B0                     l2682:
  7421  08B0  0874               	movf	Select_ch@channel,w
  7422  08B1  00F2               	movwf	??_Select_ch
  7423  08B2  01F3               	clrf	??_Select_ch+1
  7424                           
  7425                           ; Switch on 2 bytes has been partitioned into a top level switch of size 1, and 1 sub-sw
      +                          itches
  7426                           ; Switch size 1, requested type "simple"
  7427                           ; Number of cases is 1, Range of values is 0 to 0
  7428                           ; switch strategies available:
  7429                           ; Name         Instructions Cycles
  7430                           ; simple_byte            4     3 (average)
  7431                           ; direct_byte           11     8 (fixed)
  7432                           ; jumptable            260     6 (fixed)
  7433                           ;	Chosen strategy is simple_byte
  7434  08B3  0873               	movf	??_Select_ch+1,w
  7435  08B4  3A00               	xorlw	0	; case 0
  7436  08B5  1903               	skipnz
  7437  08B6  28B8               	goto	l3560
  7438  08B7  28EA               	goto	l199
  7439  08B8                     l3560:
  7440                           
  7441                           ; Switch size 1, requested type "simple"
  7442                           ; Number of cases is 16, Range of values is 0 to 15
  7443                           ; switch strategies available:
  7444                           ; Name         Instructions Cycles
  7445                           ; simple_byte           49    25 (average)
  7446                           ; direct_byte           56     8 (fixed)
  7447                           ; jumptable            260     6 (fixed)
  7448                           ;	Chosen strategy is simple_byte
  7449  08B8  0872               	movf	??_Select_ch,w
  7450  08B9  3A00               	xorlw	0	; case 0
  7451  08BA  1903               	skipnz
  7452  08BB  2840               	goto	l198
  7453  08BC  3A01               	xorlw	1	; case 1
  7454  08BD  1903               	skipnz
  7455  08BE  2847               	goto	l200
  7456  08BF  3A03               	xorlw	3	; case 2
  7457  08C0  1903               	skipnz
  7458  08C1  284E               	goto	l201
  7459  08C2  3A01               	xorlw	1	; case 3
  7460  08C3  1903               	skipnz
  7461  08C4  2855               	goto	l202
  7462  08C5  3A07               	xorlw	7	; case 4
  7463  08C6  1903               	skipnz
  7464  08C7  285C               	goto	l203
  7465  08C8  3A01               	xorlw	1	; case 5
  7466  08C9  1903               	skipnz
  7467  08CA  2863               	goto	l204
  7468  08CB  3A03               	xorlw	3	; case 6
  7469  08CC  1903               	skipnz
  7470  08CD  286A               	goto	l205
  7471  08CE  3A01               	xorlw	1	; case 7
  7472  08CF  1903               	skipnz
  7473  08D0  2871               	goto	l206
  7474  08D1  3A0F               	xorlw	15	; case 8
  7475  08D2  1903               	skipnz
  7476  08D3  2878               	goto	l207
  7477  08D4  3A01               	xorlw	1	; case 9
  7478  08D5  1903               	skipnz
  7479  08D6  287F               	goto	l208
  7480  08D7  3A03               	xorlw	3	; case 10
  7481  08D8  1903               	skipnz
  7482  08D9  2886               	goto	l209
  7483  08DA  3A01               	xorlw	1	; case 11
  7484  08DB  1903               	skipnz
  7485  08DC  288D               	goto	l210
  7486  08DD  3A07               	xorlw	7	; case 12
  7487  08DE  1903               	skipnz
  7488  08DF  2894               	goto	l211
  7489  08E0  3A01               	xorlw	1	; case 13
  7490  08E1  1903               	skipnz
  7491  08E2  289B               	goto	l212
  7492  08E3  3A03               	xorlw	3	; case 14
  7493  08E4  1903               	skipnz
  7494  08E5  28A2               	goto	l213
  7495  08E6  3A01               	xorlw	1	; case 15
  7496  08E7  1903               	skipnz
  7497  08E8  28A9               	goto	l214
  7498  08E9  28EA               	goto	l199
  7499  08EA                     l199:
  7500                           
  7501                           ;ADC_LIB.c: 206:     _delay((unsigned long)((5)*(4000000/4000000.0)));
  7502  08EA  28EB               	nop2	;2 cycle nop
  7503  08EB  28EC               	nop2	;2 cycle nop
  7504  08EC  0000               	nop
  7505                           
  7506                           ;ADC_LIB.c: 207:     ADCON0bits.GO = 1;
  7507  08ED  1283               	bcf	3,5	;RP0=0, select bank0
  7508  08EE  1303               	bcf	3,6	;RP1=0, select bank0
  7509  08EF  149F               	bsf	31,1	;volatile
  7510  08F0                     l215:
  7511  08F0  0008               	return
  7512  08F1                     __end_of_Select_ch:
  7513                           
  7514                           	psect	text15
  7515  1560                     __ptext15:	
  7516 ;; *************** function _Lcd_Write_String *****************
  7517 ;; Defined at:
  7518 ;;		line 61 in file "LCD.c"
  7519 ;; Parameters:    Size  Location     Type
  7520 ;;  a               2    5[COMMON] PTR unsigned char 
  7521 ;;		 -> adc1(10), adc0(10), STR_3(3), STR_2(3), 
  7522 ;;		 -> STR_1(3), 
  7523 ;; Auto vars:     Size  Location     Type
  7524 ;;  i               2    0[BANK0 ] int 
  7525 ;; Return value:  Size  Location     Type
  7526 ;;                  1    wreg      void 
  7527 ;; Registers used:
  7528 ;;		wreg, fsr0l, fsr0h, status,2, status,0, btemp+1, pclath, cstack
  7529 ;; Tracked objects:
  7530 ;;		On entry : 0/0
  7531 ;;		On exit  : 0/0
  7532 ;;		Unchanged: 0/0
  7533 ;; Data sizes:     COMMON   BANK0   BANK1   BANK3   BANK2
  7534 ;;      Params:         2       0       0       0       0
  7535 ;;      Locals:         0       2       0       0       0
  7536 ;;      Temps:          3       0       0       0       0
  7537 ;;      Totals:         5       2       0       0       0
  7538 ;;Total ram usage:        7 bytes
  7539 ;; Hardware stack levels used:    1
  7540 ;; Hardware stack levels required when called:    3
  7541 ;; This function calls:
  7542 ;;		_Lcd_Write_Char
  7543 ;; This function is called by:
  7544 ;;		_main
  7545 ;; This function uses a non-reentrant model
  7546 ;;
  7547                           
  7548                           
  7549                           ;psect for function _Lcd_Write_String
  7550  1560                     _Lcd_Write_String:
  7551  1560                     l3280:	
  7552                           ;incstack = 0
  7553                           ; Regs used in _Lcd_Write_String: [wreg-fsr0h+status,2+status,0+btemp+1+pclath+cstack]
  7554                           
  7555                           
  7556                           ;LCD.c: 62:     int i;;LCD.c: 63:     for (i = 0; a[i] != '\0'; i++)
  7557  1560  1283               	bcf	3,5	;RP0=0, select bank0
  7558  1561  1303               	bcf	3,6	;RP1=0, select bank0
  7559  1562  01A0               	clrf	Lcd_Write_String@i
  7560  1563  01A1               	clrf	Lcd_Write_String@i+1
  7561  1564  2D89               	goto	l3286
  7562  1565                     l3282:
  7563                           
  7564                           ;LCD.c: 64:         Lcd_Write_Char(a[i]);
  7565  1565  0820               	movf	Lcd_Write_String@i,w
  7566  1566  0775               	addwf	Lcd_Write_String@a,w
  7567  1567  00F8               	movwf	??_Lcd_Write_String+1
  7568  1568  0876               	movf	Lcd_Write_String@a+1,w
  7569  1569  00F7               	movwf	??_Lcd_Write_String
  7570  156A  1803               	skipnc
  7571  156B  0AF7               	incf	??_Lcd_Write_String,f
  7572  156C  1FA0               	btfss	Lcd_Write_String@i,7
  7573  156D  2D6F               	goto	u4340
  7574  156E  03F7               	decf	??_Lcd_Write_String,f
  7575  156F                     u4340:
  7576  156F  0877               	movf	??_Lcd_Write_String,w
  7577  1570  00F9               	movwf	??_Lcd_Write_String+2
  7578  1571  0879               	movf	??_Lcd_Write_String+2,w
  7579  1572  1283               	bcf	3,5	;RP0=0, select bank0
  7580  1573  1303               	bcf	3,6	;RP1=0, select bank0
  7581  1574  00FF               	movwf	btemp+1
  7582  1575  0878               	movf	??_Lcd_Write_String+1,w
  7583  1576  0084               	movwf	4
  7584  1577  160A  118A  2000  160A  118A  	fcall	stringtab
  7585  157C  120A  158A  2000  160A  118A  	fcall	_Lcd_Write_Char
  7586  1581                     l3284:
  7587  1581  3001               	movlw	1
  7588  1582  1283               	bcf	3,5	;RP0=0, select bank0
  7589  1583  1303               	bcf	3,6	;RP1=0, select bank0
  7590  1584  07A0               	addwf	Lcd_Write_String@i,f
  7591  1585  1803               	skipnc
  7592  1586  0AA1               	incf	Lcd_Write_String@i+1,f
  7593  1587  3000               	movlw	0
  7594  1588  07A1               	addwf	Lcd_Write_String@i+1,f
  7595  1589                     l3286:
  7596  1589  0820               	movf	Lcd_Write_String@i,w
  7597  158A  0775               	addwf	Lcd_Write_String@a,w
  7598  158B  00F8               	movwf	??_Lcd_Write_String+1
  7599  158C  0876               	movf	Lcd_Write_String@a+1,w
  7600  158D  00F7               	movwf	??_Lcd_Write_String
  7601  158E  1803               	skipnc
  7602  158F  0AF7               	incf	??_Lcd_Write_String,f
  7603  1590  1FA0               	btfss	Lcd_Write_String@i,7
  7604  1591  2D93               	goto	u4350
  7605  1592  03F7               	decf	??_Lcd_Write_String,f
  7606  1593                     u4350:
  7607  1593  0877               	movf	??_Lcd_Write_String,w
  7608  1594  00F9               	movwf	??_Lcd_Write_String+2
  7609  1595  0879               	movf	??_Lcd_Write_String+2,w
  7610  1596  1283               	bcf	3,5	;RP0=0, select bank0
  7611  1597  1303               	bcf	3,6	;RP1=0, select bank0
  7612  1598  00FF               	movwf	btemp+1
  7613  1599  0878               	movf	??_Lcd_Write_String+1,w
  7614  159A  0084               	movwf	4
  7615  159B  160A  118A  2000  160A  118A  	fcall	stringtab
  7616  15A0  3A00               	xorlw	0
  7617  15A1  1D03               	skipz
  7618  15A2  2DA4               	goto	u4361
  7619  15A3  2DA5               	goto	u4360
  7620  15A4                     u4361:
  7621  15A4  2D65               	goto	l3282
  7622  15A5                     u4360:
  7623  15A5                     l111:
  7624  15A5  0008               	return
  7625  15A6                     __end_of_Lcd_Write_String:
  7626                           
  7627                           	psect	text16
  7628  0800                     __ptext16:	
  7629 ;; *************** function _Lcd_Write_Char *****************
  7630 ;; Defined at:
  7631 ;;		line 53 in file "LCD.c"
  7632 ;; Parameters:    Size  Location     Type
  7633 ;;  a               1    wreg     unsigned char 
  7634 ;; Auto vars:     Size  Location     Type
  7635 ;;  a               1    4[COMMON] unsigned char 
  7636 ;; Return value:  Size  Location     Type
  7637 ;;                  1    wreg      void 
  7638 ;; Registers used:
  7639 ;;		wreg, status,2, status,0, pclath, cstack
  7640 ;; Tracked objects:
  7641 ;;		On entry : 0/0
  7642 ;;		On exit  : 0/0
  7643 ;;		Unchanged: 0/0
  7644 ;; Data sizes:     COMMON   BANK0   BANK1   BANK3   BANK2
  7645 ;;      Params:         0       0       0       0       0
  7646 ;;      Locals:         1       0       0       0       0
  7647 ;;      Temps:          1       0       0       0       0
  7648 ;;      Totals:         2       0       0       0       0
  7649 ;;Total ram usage:        2 bytes
  7650 ;; Hardware stack levels used:    1
  7651 ;; Hardware stack levels required when called:    2
  7652 ;; This function calls:
  7653 ;;		_Lcd_Port
  7654 ;; This function is called by:
  7655 ;;		_Lcd_Write_String
  7656 ;; This function uses a non-reentrant model
  7657 ;;
  7658                           
  7659                           
  7660                           ;psect for function _Lcd_Write_Char
  7661  0800                     _Lcd_Write_Char:
  7662                           
  7663                           ;incstack = 0
  7664                           ; Regs used in _Lcd_Write_Char: [wreg+status,2+status,0+pclath+cstack]
  7665                           ;Lcd_Write_Char@a stored from wreg
  7666  0800  00F4               	movwf	Lcd_Write_Char@a
  7667  0801                     l3012:
  7668                           
  7669                           ;LCD.c: 54:     PORTDbits.RD0 = 1;
  7670  0801  1283               	bcf	3,5	;RP0=0, select bank0
  7671  0802  1303               	bcf	3,6	;RP1=0, select bank0
  7672  0803  1408               	bsf	8,0	;volatile
  7673  0804                     l3014:
  7674                           
  7675                           ;LCD.c: 55:     Lcd_Port(a);
  7676  0804  0874               	movf	Lcd_Write_Char@a,w
  7677  0805  160A  118A  248A  120A  158A  	fcall	_Lcd_Port
  7678  080A                     l3016:
  7679                           
  7680                           ;LCD.c: 56:     PORTDbits.RD1 = 1;
  7681  080A  1283               	bcf	3,5	;RP0=0, select bank0
  7682  080B  1303               	bcf	3,6	;RP1=0, select bank0
  7683  080C  1488               	bsf	8,1	;volatile
  7684  080D                     l3018:
  7685                           
  7686                           ;LCD.c: 57:     _delay((unsigned long)((10)*(4000000/4000000.0)));
  7687  080D  3003               	movlw	3
  7688  080E  00F3               	movwf	??_Lcd_Write_Char
  7689  080F                     u4497:
  7690  080F  0BF3               	decfsz	??_Lcd_Write_Char,f
  7691  0810  280F               	goto	u4497
  7692  0811                     l3020:
  7693                           
  7694                           ;LCD.c: 58:     PORTDbits.RD1 = 0;
  7695  0811  1283               	bcf	3,5	;RP0=0, select bank0
  7696  0812  1303               	bcf	3,6	;RP1=0, select bank0
  7697  0813  1088               	bcf	8,1	;volatile
  7698  0814                     l105:
  7699  0814  0008               	return
  7700  0815                     __end_of_Lcd_Write_Char:
  7701                           
  7702                           	psect	text17
  7703  14AC                     __ptext17:	
  7704 ;; *************** function _Lcd_Set_Cursor *****************
  7705 ;; Defined at:
  7706 ;;		line 28 in file "LCD.c"
  7707 ;; Parameters:    Size  Location     Type
  7708 ;;  a               1    wreg     unsigned char 
  7709 ;;  b               1    6[COMMON] unsigned char 
  7710 ;; Auto vars:     Size  Location     Type
  7711 ;;  a               1    8[COMMON] unsigned char 
  7712 ;;  temp            1    9[COMMON] unsigned char 
  7713 ;; Return value:  Size  Location     Type
  7714 ;;                  1    wreg      void 
  7715 ;; Registers used:
  7716 ;;		wreg, status,2, status,0, pclath, cstack
  7717 ;; Tracked objects:
  7718 ;;		On entry : 0/0
  7719 ;;		On exit  : 0/0
  7720 ;;		Unchanged: 0/0
  7721 ;; Data sizes:     COMMON   BANK0   BANK1   BANK3   BANK2
  7722 ;;      Params:         1       0       0       0       0
  7723 ;;      Locals:         2       0       0       0       0
  7724 ;;      Temps:          1       0       0       0       0
  7725 ;;      Totals:         4       0       0       0       0
  7726 ;;Total ram usage:        4 bytes
  7727 ;; Hardware stack levels used:    1
  7728 ;; Hardware stack levels required when called:    3
  7729 ;; This function calls:
  7730 ;;		_Lcd_Cmd
  7731 ;; This function is called by:
  7732 ;;		_main
  7733 ;; This function uses a non-reentrant model
  7734 ;;
  7735                           
  7736                           
  7737                           ;psect for function _Lcd_Set_Cursor
  7738  14AC                     _Lcd_Set_Cursor:
  7739                           
  7740                           ;incstack = 0
  7741                           ; Regs used in _Lcd_Set_Cursor: [wreg+status,2+status,0+pclath+cstack]
  7742                           ;Lcd_Set_Cursor@a stored from wreg
  7743  14AC  00F8               	movwf	Lcd_Set_Cursor@a
  7744  14AD                     l3268:
  7745                           
  7746                           ;LCD.c: 29:     char temp;;LCD.c: 30:     if (a == 1) {
  7747  14AD  0378               	decf	Lcd_Set_Cursor@a,w
  7748  14AE  1D03               	btfss	3,2
  7749  14AF  2CB1               	goto	u4321
  7750  14B0  2CB2               	goto	u4320
  7751  14B1                     u4321:
  7752  14B1  2CBE               	goto	l3274
  7753  14B2                     u4320:
  7754  14B2                     l3270:
  7755                           
  7756                           ;LCD.c: 31:         temp = 0x80 + b - 1;
  7757  14B2  0876               	movf	Lcd_Set_Cursor@b,w
  7758  14B3  3E7F               	addlw	127
  7759  14B4  00F7               	movwf	??_Lcd_Set_Cursor
  7760  14B5  0877               	movf	??_Lcd_Set_Cursor,w
  7761  14B6  00F9               	movwf	Lcd_Set_Cursor@temp
  7762  14B7                     l3272:
  7763                           
  7764                           ;LCD.c: 32:         Lcd_Cmd(temp);
  7765  14B7  0879               	movf	Lcd_Set_Cursor@temp,w
  7766  14B8  120A  118A  27E1  160A  118A  	fcall	_Lcd_Cmd
  7767                           
  7768                           ;LCD.c: 33:     } else if (a == 2) {
  7769  14BD  2CCF               	goto	l99
  7770  14BE                     l3274:
  7771  14BE  3002               	movlw	2
  7772  14BF  0678               	xorwf	Lcd_Set_Cursor@a,w
  7773  14C0  1D03               	btfss	3,2
  7774  14C1  2CC3               	goto	u4331
  7775  14C2  2CC4               	goto	u4330
  7776  14C3                     u4331:
  7777  14C3  2CCF               	goto	l99
  7778  14C4                     u4330:
  7779  14C4                     l3276:
  7780                           
  7781                           ;LCD.c: 34:         temp = 0xC0 + b - 1;
  7782  14C4  0876               	movf	Lcd_Set_Cursor@b,w
  7783  14C5  3EBF               	addlw	191
  7784  14C6  00F7               	movwf	??_Lcd_Set_Cursor
  7785  14C7  0877               	movf	??_Lcd_Set_Cursor,w
  7786  14C8  00F9               	movwf	Lcd_Set_Cursor@temp
  7787  14C9                     l3278:
  7788                           
  7789                           ;LCD.c: 35:         Lcd_Cmd(temp);
  7790  14C9  0879               	movf	Lcd_Set_Cursor@temp,w
  7791  14CA  120A  118A  27E1  160A  118A  	fcall	_Lcd_Cmd
  7792  14CF                     l99:
  7793  14CF  0008               	return
  7794  14D0                     __end_of_Lcd_Set_Cursor:
  7795                           
  7796                           	psect	text18
  7797  151B                     __ptext18:	
  7798 ;; *************** function _Lcd_Init *****************
  7799 ;; Defined at:
  7800 ;;		line 39 in file "LCD.c"
  7801 ;; Parameters:    Size  Location     Type
  7802 ;;		None
  7803 ;; Auto vars:     Size  Location     Type
  7804 ;;		None
  7805 ;; Return value:  Size  Location     Type
  7806 ;;                  1    wreg      void 
  7807 ;; Registers used:
  7808 ;;		wreg, status,2, status,0, pclath, cstack
  7809 ;; Tracked objects:
  7810 ;;		On entry : 0/0
  7811 ;;		On exit  : 0/0
  7812 ;;		Unchanged: 0/0
  7813 ;; Data sizes:     COMMON   BANK0   BANK1   BANK3   BANK2
  7814 ;;      Params:         0       0       0       0       0
  7815 ;;      Locals:         0       0       0       0       0
  7816 ;;      Temps:          2       0       0       0       0
  7817 ;;      Totals:         2       0       0       0       0
  7818 ;;Total ram usage:        2 bytes
  7819 ;; Hardware stack levels used:    1
  7820 ;; Hardware stack levels required when called:    3
  7821 ;; This function calls:
  7822 ;;		_Lcd_Cmd
  7823 ;;		_Lcd_Port
  7824 ;; This function is called by:
  7825 ;;		_main
  7826 ;; This function uses a non-reentrant model
  7827 ;;
  7828                           
  7829                           
  7830                           ;psect for function _Lcd_Init
  7831  151B                     _Lcd_Init:
  7832  151B                     l3256:	
  7833                           ;incstack = 0
  7834                           ; Regs used in _Lcd_Init: [wreg+status,2+status,0+pclath+cstack]
  7835                           
  7836                           
  7837                           ;LCD.c: 40:     Lcd_Port(0x00);
  7838  151B  3000               	movlw	0
  7839  151C  160A  118A  248A  160A  118A  	fcall	_Lcd_Port
  7840  1521                     l3258:
  7841                           
  7842                           ;LCD.c: 41:     _delay((unsigned long)((20)*(4000000/4000.0)));
  7843  1521  301A               	movlw	26
  7844  1522  00F7               	movwf	??_Lcd_Init+1
  7845  1523  30F8               	movlw	248
  7846  1524  00F6               	movwf	??_Lcd_Init
  7847  1525                     u4507:
  7848  1525  0BF6               	decfsz	??_Lcd_Init,f
  7849  1526  2D25               	goto	u4507
  7850  1527  0BF7               	decfsz	??_Lcd_Init+1,f
  7851  1528  2D25               	goto	u4507
  7852  1529  0000               	nop
  7853  152A                     l3260:
  7854                           
  7855                           ;LCD.c: 42:     Lcd_Cmd(0x30);
  7856  152A  3030               	movlw	48
  7857  152B  120A  118A  27E1  160A  118A  	fcall	_Lcd_Cmd
  7858                           
  7859                           ;LCD.c: 43:     _delay((unsigned long)((5)*(4000000/4000.0)));
  7860  1530  3007               	movlw	7
  7861  1531  00F7               	movwf	??_Lcd_Init+1
  7862  1532  307D               	movlw	125
  7863  1533  00F6               	movwf	??_Lcd_Init
  7864  1534                     u4517:
  7865  1534  0BF6               	decfsz	??_Lcd_Init,f
  7866  1535  2D34               	goto	u4517
  7867  1536  0BF7               	decfsz	??_Lcd_Init+1,f
  7868  1537  2D34               	goto	u4517
  7869  1538                     l3262:
  7870                           
  7871                           ;LCD.c: 44:     Lcd_Cmd(0x30);
  7872  1538  3030               	movlw	48
  7873  1539  120A  118A  27E1  160A  118A  	fcall	_Lcd_Cmd
  7874  153E                     l3264:
  7875                           
  7876                           ;LCD.c: 45:     _delay((unsigned long)((11)*(4000000/4000.0)));
  7877  153E  300F               	movlw	15
  7878  153F  00F7               	movwf	??_Lcd_Init+1
  7879  1540  3047               	movlw	71
  7880  1541  00F6               	movwf	??_Lcd_Init
  7881  1542                     u4527:
  7882  1542  0BF6               	decfsz	??_Lcd_Init,f
  7883  1543  2D42               	goto	u4527
  7884  1544  0BF7               	decfsz	??_Lcd_Init+1,f
  7885  1545  2D42               	goto	u4527
  7886  1546  2D47               	nop2
  7887                           
  7888                           ;LCD.c: 46:     Lcd_Cmd(0x30);
  7889  1547  3030               	movlw	48
  7890  1548  120A  118A  27E1  160A  118A  	fcall	_Lcd_Cmd
  7891                           
  7892                           ;LCD.c: 48:     Lcd_Cmd(0x38);
  7893  154D  3038               	movlw	56
  7894  154E  120A  118A  27E1  160A  118A  	fcall	_Lcd_Cmd
  7895                           
  7896                           ;LCD.c: 49:     Lcd_Cmd(0x0C);
  7897  1553  300C               	movlw	12
  7898  1554  120A  118A  27E1  160A  118A  	fcall	_Lcd_Cmd
  7899                           
  7900                           ;LCD.c: 50:     Lcd_Cmd(0x6);
  7901  1559  3006               	movlw	6
  7902  155A  120A  118A  27E1  160A  118A  	fcall	_Lcd_Cmd
  7903  155F                     l102:
  7904  155F  0008               	return
  7905  1560                     __end_of_Lcd_Init:
  7906                           
  7907                           	psect	text19
  7908  149F                     __ptext19:	
  7909 ;; *************** function _Lcd_Clear *****************
  7910 ;; Defined at:
  7911 ;;		line 23 in file "LCD.c"
  7912 ;; Parameters:    Size  Location     Type
  7913 ;;		None
  7914 ;; Auto vars:     Size  Location     Type
  7915 ;;		None
  7916 ;; Return value:  Size  Location     Type
  7917 ;;                  1    wreg      void 
  7918 ;; Registers used:
  7919 ;;		wreg, status,2, status,0, pclath, cstack
  7920 ;; Tracked objects:
  7921 ;;		On entry : 0/0
  7922 ;;		On exit  : 0/0
  7923 ;;		Unchanged: 0/0
  7924 ;; Data sizes:     COMMON   BANK0   BANK1   BANK3   BANK2
  7925 ;;      Params:         0       0       0       0       0
  7926 ;;      Locals:         0       0       0       0       0
  7927 ;;      Temps:          0       0       0       0       0
  7928 ;;      Totals:         0       0       0       0       0
  7929 ;;Total ram usage:        0 bytes
  7930 ;; Hardware stack levels used:    1
  7931 ;; Hardware stack levels required when called:    3
  7932 ;; This function calls:
  7933 ;;		_Lcd_Cmd
  7934 ;; This function is called by:
  7935 ;;		_main
  7936 ;; This function uses a non-reentrant model
  7937 ;;
  7938                           
  7939                           
  7940                           ;psect for function _Lcd_Clear
  7941  149F                     _Lcd_Clear:
  7942  149F                     l3266:	
  7943                           ;incstack = 0
  7944                           ; Regs used in _Lcd_Clear: [wreg+status,2+status,0+pclath+cstack]
  7945                           
  7946                           
  7947                           ;LCD.c: 24:     Lcd_Cmd(0);
  7948  149F  3000               	movlw	0
  7949  14A0  120A  118A  27E1  160A  118A  	fcall	_Lcd_Cmd
  7950                           
  7951                           ;LCD.c: 25:     Lcd_Cmd(1);
  7952  14A5  3001               	movlw	1
  7953  14A6  120A  118A  27E1  160A  118A  	fcall	_Lcd_Cmd
  7954  14AB                     l93:
  7955  14AB  0008               	return
  7956  14AC                     __end_of_Lcd_Clear:
  7957                           
  7958                           	psect	text20
  7959  07E1                     __ptext20:	
  7960 ;; *************** function _Lcd_Cmd *****************
  7961 ;; Defined at:
  7962 ;;		line 15 in file "LCD.c"
  7963 ;; Parameters:    Size  Location     Type
  7964 ;;  a               1    wreg     unsigned char 
  7965 ;; Auto vars:     Size  Location     Type
  7966 ;;  a               1    5[COMMON] unsigned char 
  7967 ;; Return value:  Size  Location     Type
  7968 ;;                  1    wreg      void 
  7969 ;; Registers used:
  7970 ;;		wreg, status,2, status,0, pclath, cstack
  7971 ;; Tracked objects:
  7972 ;;		On entry : 0/0
  7973 ;;		On exit  : 0/0
  7974 ;;		Unchanged: 0/0
  7975 ;; Data sizes:     COMMON   BANK0   BANK1   BANK3   BANK2
  7976 ;;      Params:         0       0       0       0       0
  7977 ;;      Locals:         1       0       0       0       0
  7978 ;;      Temps:          2       0       0       0       0
  7979 ;;      Totals:         3       0       0       0       0
  7980 ;;Total ram usage:        3 bytes
  7981 ;; Hardware stack levels used:    1
  7982 ;; Hardware stack levels required when called:    2
  7983 ;; This function calls:
  7984 ;;		_Lcd_Port
  7985 ;; This function is called by:
  7986 ;;		_Lcd_Clear
  7987 ;;		_Lcd_Set_Cursor
  7988 ;;		_Lcd_Init
  7989 ;;		_Lcd_Shift_Right
  7990 ;;		_Lcd_Shift_Left
  7991 ;; This function uses a non-reentrant model
  7992 ;;
  7993                           
  7994                           
  7995                           ;psect for function _Lcd_Cmd
  7996  07E1                     _Lcd_Cmd:
  7997                           
  7998                           ;incstack = 0
  7999                           ; Regs used in _Lcd_Cmd: [wreg+status,2+status,0+pclath+cstack]
  8000                           ;Lcd_Cmd@a stored from wreg
  8001  07E1  00F5               	movwf	Lcd_Cmd@a
  8002  07E2                     l3002:
  8003                           
  8004                           ;LCD.c: 16:     PORTDbits.RD0 = 0;
  8005  07E2  1283               	bcf	3,5	;RP0=0, select bank0
  8006  07E3  1303               	bcf	3,6	;RP1=0, select bank0
  8007  07E4  1008               	bcf	8,0	;volatile
  8008  07E5                     l3004:
  8009                           
  8010                           ;LCD.c: 17:     Lcd_Port(a);
  8011  07E5  0875               	movf	Lcd_Cmd@a,w
  8012  07E6  160A  118A  248A  120A  118A  	fcall	_Lcd_Port
  8013  07EB                     l3006:
  8014                           
  8015                           ;LCD.c: 18:     PORTDbits.RD1 = 1;
  8016  07EB  1283               	bcf	3,5	;RP0=0, select bank0
  8017  07EC  1303               	bcf	3,6	;RP1=0, select bank0
  8018  07ED  1488               	bsf	8,1	;volatile
  8019  07EE                     l3008:
  8020                           
  8021                           ;LCD.c: 19:     _delay((unsigned long)((4)*(4000000/4000.0)));
  8022  07EE  3006               	movlw	6
  8023  07EF  00F4               	movwf	??_Lcd_Cmd+1
  8024  07F0  3030               	movlw	48
  8025  07F1  00F3               	movwf	??_Lcd_Cmd
  8026  07F2                     u4537:
  8027  07F2  0BF3               	decfsz	??_Lcd_Cmd,f
  8028  07F3  2FF2               	goto	u4537
  8029  07F4  0BF4               	decfsz	??_Lcd_Cmd+1,f
  8030  07F5  2FF2               	goto	u4537
  8031  07F6  0000               	nop
  8032  07F7                     l3010:
  8033                           
  8034                           ;LCD.c: 20:     PORTDbits.RD1 = 0;
  8035  07F7  1283               	bcf	3,5	;RP0=0, select bank0
  8036  07F8  1303               	bcf	3,6	;RP1=0, select bank0
  8037  07F9  1088               	bcf	8,1	;volatile
  8038  07FA                     l90:
  8039  07FA  0008               	return
  8040  07FB                     __end_of_Lcd_Cmd:
  8041                           
  8042                           	psect	text21
  8043  148A                     __ptext21:	
  8044 ;; *************** function _Lcd_Port *****************
  8045 ;; Defined at:
  8046 ;;		line 11 in file "LCD.c"
  8047 ;; Parameters:    Size  Location     Type
  8048 ;;  a               1    wreg     unsigned char 
  8049 ;; Auto vars:     Size  Location     Type
  8050 ;;  a               1    2[COMMON] unsigned char 
  8051 ;; Return value:  Size  Location     Type
  8052 ;;                  1    wreg      void 
  8053 ;; Registers used:
  8054 ;;		wreg
  8055 ;; Tracked objects:
  8056 ;;		On entry : 0/0
  8057 ;;		On exit  : 0/0
  8058 ;;		Unchanged: 0/0
  8059 ;; Data sizes:     COMMON   BANK0   BANK1   BANK3   BANK2
  8060 ;;      Params:         0       0       0       0       0
  8061 ;;      Locals:         1       0       0       0       0
  8062 ;;      Temps:          0       0       0       0       0
  8063 ;;      Totals:         1       0       0       0       0
  8064 ;;Total ram usage:        1 bytes
  8065 ;; Hardware stack levels used:    1
  8066 ;; Hardware stack levels required when called:    1
  8067 ;; This function calls:
  8068 ;;		Nothing
  8069 ;; This function is called by:
  8070 ;;		_Lcd_Cmd
  8071 ;;		_Lcd_Init
  8072 ;;		_Lcd_Write_Char
  8073 ;; This function uses a non-reentrant model
  8074 ;;
  8075                           
  8076                           
  8077                           ;psect for function _Lcd_Port
  8078  148A                     _Lcd_Port:
  8079                           
  8080                           ;incstack = 0
  8081                           ; Regs used in _Lcd_Port: [wreg]
  8082                           ;Lcd_Port@a stored from wreg
  8083  148A  00F2               	movwf	Lcd_Port@a
  8084  148B                     l2986:
  8085                           
  8086                           ;LCD.c: 12:     PORTA = a;
  8087  148B  0872               	movf	Lcd_Port@a,w
  8088  148C  1283               	bcf	3,5	;RP0=0, select bank0
  8089  148D  1303               	bcf	3,6	;RP1=0, select bank0
  8090  148E  0085               	movwf	5	;volatile
  8091  148F                     l87:
  8092  148F  0008               	return
  8093  1490                     __end_of_Lcd_Port:
  8094                           
  8095                           	psect	text22
  8096  1490                     __ptext22:	
  8097 ;; *************** function _ISR *****************
  8098 ;; Defined at:
  8099 ;;		line 43 in file "lab_3.c"
  8100 ;; Parameters:    Size  Location     Type
  8101 ;;		None
  8102 ;; Auto vars:     Size  Location     Type
  8103 ;;		None
  8104 ;; Return value:  Size  Location     Type
  8105 ;;                  1    wreg      void 
  8106 ;; Registers used:
  8107 ;;		None
  8108 ;; Tracked objects:
  8109 ;;		On entry : 0/0
  8110 ;;		On exit  : 0/0
  8111 ;;		Unchanged: 0/0
  8112 ;; Data sizes:     COMMON   BANK0   BANK1   BANK3   BANK2
  8113 ;;      Params:         0       0       0       0       0
  8114 ;;      Locals:         0       0       0       0       0
  8115 ;;      Temps:          2       0       0       0       0
  8116 ;;      Totals:         2       0       0       0       0
  8117 ;;Total ram usage:        2 bytes
  8118 ;; Hardware stack levels used:    1
  8119 ;; This function calls:
  8120 ;;		Nothing
  8121 ;; This function is called by:
  8122 ;;		Interrupt level 1
  8123 ;; This function uses a non-reentrant model
  8124 ;;
  8125                           
  8126                           
  8127                           ;psect for function _ISR
  8128  1490                     _ISR:
  8129  1490                     i1l67:
  8130  1490  0871               	movf	??_ISR+1,w
  8131  1491  008A               	movwf	10
  8132  1492  0E70               	swapf	??_ISR,w
  8133  1493  0083               	movwf	3
  8134  1494  0EFE               	swapf	btemp,f
  8135  1495  0E7E               	swapf	btemp,w
  8136  1496  0009               	retfie
  8137  1497                     __end_of_ISR:
  8138  007E                     btemp	set	126	;btemp
  8139  007E                     wtemp0	set	126
  8140                           
  8141                           	psect	intentry
  8142  0004                     __pintentry:	
  8143                           ;incstack = 0
  8144                           ; Regs used in _ISR: []
  8145                           
  8146  0004                     interrupt_function:
  8147  007E                     saved_w	set	btemp
  8148  0004  00FE               	movwf	btemp
  8149  0005  0E03               	swapf	3,w
  8150  0006  00F0               	movwf	??_ISR
  8151  0007  080A               	movf	10,w
  8152  0008  00F1               	movwf	??_ISR+1
  8153  0009  160A  118A  2C90   	ljmp	_ISR
  8154                           
  8155                           	psect	config
  8156                           
  8157                           ;Config register CONFIG1 @ 0x2007
  8158                           ;	Oscillator Selection bits
  8159                           ;	FOSC = INTRC_NOCLKOUT, INTOSCIO oscillator: I/O function on RA6/OSC2/CLKOUT pin, I/O f
      +                          unction on RA7/OSC1/CLKIN
  8160                           ;	Watchdog Timer Enable bit
  8161                           ;	WDTE = OFF, WDT disabled and can be enabled by SWDTEN bit of the WDTCON register
  8162                           ;	Power-up Timer Enable bit
  8163                           ;	PWRTE = OFF, PWRT disabled
  8164                           ;	RE3/MCLR pin function select bit
  8165                           ;	MCLRE = OFF, RE3/MCLR pin function is digital input, MCLR internally tied to VDD
  8166                           ;	Code Protection bit
  8167                           ;	CP = OFF, Program memory code protection is disabled
  8168                           ;	Data Code Protection bit
  8169                           ;	CPD = OFF, Data memory code protection is disabled
  8170                           ;	Brown Out Reset Selection bits
  8171                           ;	BOREN = OFF, BOR disabled
  8172                           ;	Internal External Switchover bit
  8173                           ;	IESO = OFF, Internal/External Switchover mode is disabled
  8174                           ;	Fail-Safe Clock Monitor Enabled bit
  8175                           ;	FCMEN = OFF, Fail-Safe Clock Monitor is disabled
  8176                           ;	Low Voltage Programming Enable bit
  8177                           ;	LVP = OFF, RB3 pin has digital I/O, HV on MCLR must be used for programming
  8178                           ;	In-Circuit Debugger Mode bit
  8179                           ;	DEBUG = 0x1, unprogrammed default
  8180  2007                     	org	8199
  8181  2007  20D4               	dw	8404
  8182                           
  8183                           ;Config register CONFIG2 @ 0x2008
  8184                           ;	Brown-out Reset Selection bit
  8185                           ;	BOR4V = BOR40V, Brown-out Reset set to 4.0V
  8186                           ;	Flash Program Memory Self Write Enable bits
  8187                           ;	WRT = OFF, Write protection off
  8188  2008                     	org	8200
  8189  2008  3FFF               	dw	16383

Data Sizes:
    Strings     9
    Constant    0
    Data        0
    BSS         31
    Persistent  0
    Stack       0

Auto Spaces:
    Space          Size  Autos    Used
    COMMON           14     10      12
    BANK0            80     77      77
    BANK1            80     25      54
    BANK3            96      0       0
    BANK2            96      0       0

Pointer List with Targets:

    convert@data	PTR unsigned char  size(1) Largest target is 10
		 -> adc1(BANK1[10]), adc0(BANK1[10]), 

    Lcd_Write_String@a	PTR unsigned char  size(2) Largest target is 10
		 -> adc1(BANK1[10]), adc0(BANK1[10]), STR_3(CODE[3]), STR_2(CODE[3]), 
		 -> STR_1(CODE[3]), 


Critical Paths under _main in COMMON

    _main->_Lcd_Set_Cursor
    _main->_Lcd_Write_String
    _convert->___flge
    _convert->___wmul
    ___xxtofl->___wmul
    ___wmul->___fltol
    ___flsub->___fladd
    ___flsub->___wmul
    _Lcd_Write_String->_Lcd_Write_Char
    _Lcd_Write_Char->_Lcd_Port
    _Lcd_Set_Cursor->_Lcd_Cmd
    _Lcd_Init->_Lcd_Cmd
    _Lcd_Clear->_Lcd_Cmd
    _Lcd_Cmd->_Lcd_Port

Critical Paths under _ISR in COMMON

    None.

Critical Paths under _main in BANK0

    _main->_convert
    _convert->___flmul
    ___xxtofl->___wmul
    ___wmul->___fltol
    ___flsub->___xxtofl
    ___flmul->___fldiv
    ___fldiv->___xxtofl

Critical Paths under _ISR in BANK0

    None.

Critical Paths under _main in BANK1

    _main->_convert

Critical Paths under _ISR in BANK1

    None.

Critical Paths under _main in BANK3

    None.

Critical Paths under _ISR in BANK3

    None.

Critical Paths under _main in BANK2

    None.

Critical Paths under _ISR in BANK2

    None.

Call Graph Tables:

 ---------------------------------------------------------------------------------
 (Depth) Function   	        Calls       Base Space   Used Autos Params    Refs
 ---------------------------------------------------------------------------------
 (0) _main                                                 4     4      0   22539
                                             21 BANK1      4     4      0
                          _Lcd_Clear
                           _Lcd_Init
                     _Lcd_Set_Cursor
                   _Lcd_Write_String
                          _Select_ch
                            ___fldiv
                            ___flmul
                           ___xxtofl
                            _convert
                          _start_adc
                           _start_ch
 ---------------------------------------------------------------------------------
 (1) _start_ch                                             3     3      0      22
                                              2 COMMON     3     3      0
 ---------------------------------------------------------------------------------
 (1) _start_adc                                            6     3      3     316
                                              2 COMMON     6     3      3
 ---------------------------------------------------------------------------------
 (1) _convert                                             23    17      6   14126
                                             75 BANK0      2     2      0
                                              0 BANK1     21    15      6
                            ___awdiv
                            ___fldiv
                             ___flge
                            ___flmul
                            ___flsub
                            ___fltol
                             ___wmul
                           ___xxtofl
 ---------------------------------------------------------------------------------
 (2) ___xxtofl                                            14    10      4     930
                                              9 BANK0     14    10      4
                            ___fltol (ARG)
                             ___wmul (ARG)
 ---------------------------------------------------------------------------------
 (2) ___wmul                                               6     2      4    1036
                                              8 COMMON     2     2      0
                                              5 BANK0      4     0      4
                            ___fltol (ARG)
 ---------------------------------------------------------------------------------
 (2) ___fltol                                             11     7      4     967
                                              2 COMMON     6     2      4
                                              0 BANK0      5     5      0
 ---------------------------------------------------------------------------------
 (2) ___flsub                                              8     0      8    2637
                                             23 BANK0      8     0      8
                            ___fladd
                            ___fltol (ARG)
                             ___wmul (ARG)
                           ___xxtofl (ARG)
 ---------------------------------------------------------------------------------
 (3) ___fladd                                             20    12      8    2136
                                              2 COMMON     8     0      8
                                              0 BANK0     12    12      0
 ---------------------------------------------------------------------------------
 (2) ___flmul                                             26    18      8    3893
                                             49 BANK0     26    18      8
                          __Umul8_16
                            ___fldiv (ARG)
                            ___flsub (ARG)
                            ___fltol (ARG)
                           ___xxtofl (ARG)
 ---------------------------------------------------------------------------------
 (3) __Umul8_16                                            9     7      2     980
                                              2 COMMON     4     2      2
                                              0 BANK0      5     5      0
 ---------------------------------------------------------------------------------
 (2) ___flge                                              12     4      8     334
                                              2 COMMON     8     0      8
                                              0 BANK0      4     4      0
 ---------------------------------------------------------------------------------
 (2) ___fldiv                                             26    18      8    1729
                                             23 BANK0     26    18      8
                           ___xxtofl (ARG)
 ---------------------------------------------------------------------------------
 (2) ___awdiv                                              9     5      4     625
                                              2 COMMON     5     1      4
                                              0 BANK0      4     4      0
 ---------------------------------------------------------------------------------
 (1) _Select_ch                                            3     3      0      22
                                              2 COMMON     3     3      0
 ---------------------------------------------------------------------------------
 (1) _Lcd_Write_String                                     7     5      2     642
                                              5 COMMON     5     3      2
                                              0 BANK0      2     2      0
                     _Lcd_Write_Char
 ---------------------------------------------------------------------------------
 (2) _Lcd_Write_Char                                       2     2      0      62
                                              3 COMMON     2     2      0
                           _Lcd_Port
 ---------------------------------------------------------------------------------
 (1) _Lcd_Set_Cursor                                       4     3      1     704
                                              6 COMMON     4     3      1
                            _Lcd_Cmd
 ---------------------------------------------------------------------------------
 (1) _Lcd_Init                                             2     2      0      93
                                              6 COMMON     2     2      0
                            _Lcd_Cmd
                           _Lcd_Port
 ---------------------------------------------------------------------------------
 (1) _Lcd_Clear                                            0     0      0      62
                            _Lcd_Cmd
 ---------------------------------------------------------------------------------
 (2) _Lcd_Cmd                                              3     3      0      62
                                              3 COMMON     3     3      0
                           _Lcd_Port
 ---------------------------------------------------------------------------------
 (3) _Lcd_Port                                             1     1      0      31
                                              2 COMMON     1     1      0
 ---------------------------------------------------------------------------------
 Estimated maximum stack depth 3
 ---------------------------------------------------------------------------------
 (Depth) Function   	        Calls       Base Space   Used Autos Params    Refs
 ---------------------------------------------------------------------------------
 (4) _ISR                                                  2     2      0       0
                                              0 COMMON     2     2      0
 ---------------------------------------------------------------------------------
 Estimated maximum stack depth 4
 ---------------------------------------------------------------------------------

 Call Graph Graphs:

 _main (ROOT)
   _Lcd_Clear
     _Lcd_Cmd
       _Lcd_Port
   _Lcd_Init
     _Lcd_Cmd
       _Lcd_Port
     _Lcd_Port
   _Lcd_Set_Cursor
     _Lcd_Cmd
       _Lcd_Port
   _Lcd_Write_String
     _Lcd_Write_Char
       _Lcd_Port
   _Select_ch
   ___fldiv
     ___xxtofl (ARG)
       ___fltol (ARG)
       ___wmul (ARG)
         ___fltol (ARG)
   ___flmul
     __Umul8_16
     ___fldiv (ARG)
       ___xxtofl (ARG)
         ___fltol (ARG)
         ___wmul (ARG)
           ___fltol (ARG)
     ___flsub (ARG)
       ___fladd
       ___fltol (ARG)
       ___wmul (ARG)
         ___fltol (ARG)
       ___xxtofl (ARG)
         ___fltol (ARG)
         ___wmul (ARG)
           ___fltol (ARG)
     ___fltol (ARG)
     ___xxtofl (ARG)
       ___fltol (ARG)
       ___wmul (ARG)
         ___fltol (ARG)
   ___xxtofl
     ___fltol (ARG)
     ___wmul (ARG)
       ___fltol (ARG)
   _convert
     ___awdiv
     ___fldiv
       ___xxtofl (ARG)
         ___fltol (ARG)
         ___wmul (ARG)
           ___fltol (ARG)
     ___flge
     ___flmul
       __Umul8_16
       ___fldiv (ARG)
         ___xxtofl (ARG)
           ___fltol (ARG)
           ___wmul (ARG)
             ___fltol (ARG)
       ___flsub (ARG)
         ___fladd
         ___fltol (ARG)
         ___wmul (ARG)
           ___fltol (ARG)
         ___xxtofl (ARG)
           ___fltol (ARG)
           ___wmul (ARG)
             ___fltol (ARG)
       ___fltol (ARG)
       ___xxtofl (ARG)
         ___fltol (ARG)
         ___wmul (ARG)
           ___fltol (ARG)
     ___flsub
       ___fladd
       ___fltol (ARG)
       ___wmul (ARG)
         ___fltol (ARG)
       ___xxtofl (ARG)
         ___fltol (ARG)
         ___wmul (ARG)
           ___fltol (ARG)
     ___fltol
     ___wmul
       ___fltol (ARG)
     ___xxtofl
       ___fltol (ARG)
       ___wmul (ARG)
         ___fltol (ARG)
   _start_adc
   _start_ch

 _ISR (ROOT)

 Address spaces:
Name               Size   Autos  Total    Cost      Usage
BITCOMMON            E      0       0       0        0.0%
EEDATA             100      0       0       0        0.0%
NULL                 0      0       0       0        0.0%
CODE                 0      0       0       0        0.0%
COMMON               E      A       C       1       85.7%
BITSFR0              0      0       0       1        0.0%
SFR0                 0      0       0       1        0.0%
BITSFR1              0      0       0       2        0.0%
SFR1                 0      0       0       2        0.0%
STACK                0      0       0       2        0.0%
ABS                  0      0      8F       3        0.0%
BITBANK0            50      0       0       4        0.0%
BITSFR3              0      0       0       4        0.0%
SFR3                 0      0       0       4        0.0%
BANK0               50     4D      4D       5       96.2%
BITSFR2              0      0       0       5        0.0%
SFR2                 0      0       0       5        0.0%
BITBANK1            50      0       0       6        0.0%
BANK1               50     19      36       7       67.5%
BITBANK3            60      0       0       8        0.0%
BANK3               60      0       0       9        0.0%
BITBANK2            60      0       0      10        0.0%
BANK2               60      0       0      11        0.0%
DATA                 0      0      8F      12        0.0%


Microchip Technology PIC Macro Assembler V2.31 build 20201012212115 
Symbol Table                                                                                   Tue Feb 09 22:17:46 2021

             ___fldiv@aexp 0050               ___fldiv@bexp 004F                          pc 0002  
             ___fldiv@sign 0048                         l90 07FA                         l93 14AB  
                       l87 148F                         l99 14CF               ___awdiv@sign 0021  
                       fsr 0004        ___wmul@multiplicand 0027        __Umul8_16@word_mpld 0022  
                      l102 155F                        l111 15A5                        l200 0847  
                      l105 0814                        l201 084E                        l210 088D  
                      l202 0855                        l211 0894                        l203 085C  
                      l212 089B                        l204 0863                        l213 08A2  
                      l205 086A                        l214 08A9                        l206 0871  
                      l215 08F0                        l207 0878                        l143 047F  
                      l208 087F                        l209 0886                        l161 15AB  
                      l170 15E5                        l163 15AE                        l172 15E8  
                      l164 15B1                        l173 15EB                        l165 15B4  
                      l181 1677                        l174 15EE                        l190 169B  
                      l182 167B                        l175 1607                        l167 15E1  
                      l191 169F                        l183 167F                        l352 1502  
                      l192 16A3                        l184 1683                        l505 1670  
                      l193 16A7                        l185 1687                        l530 17FF  
                      l354 151A                        l186 168B                        l194 16DF  
                      l187 168F                        l179 1673                        l188 1693  
                      l701 0A09                        l189 1697                        l198 0840  
                      l526 177A                        l199 08EA                        l703 0B89  
                      l529 17E6                        l545 1746                        l538 175B  
                      l723 0B6D                        l651 0E59                        l548 175B  
                      l725 0B7D                        l717 0AFB                        l741 07E0  
                      l645 0DDB                        l670 0F71                        l760 082B  
                      l753 07D4                        l649 0E82                        l762 083D  
                      l666 0F4D                        l658 0FFF                        l747 074C  
                      l691 14F3                        l676 0F93                        l687 0FF3  
                      l679 0FD1                        l791 095A                        l688 0FFF  
                      l785 0915                        l787 09AC                        l798 0976  
                      l799 0982                        _ISR 1490                        fsr0 0004  
                      indf 0000               ___flmul@aexp 005F               ___flmul@bexp 0064  
             ___flmul@sign 005E               ___flmul@temp 0069               ___flmul@prod 0065  
                     ?_ISR 0070               ___fltol@exp1 0077                       l2000 0DBE  
                     l2002 0DC3                       l2010 0DD3                       l2100 0F3F  
                     l2020 0DF1                       l2012 0DE1                       l2004 0DC8  
                     l2110 0F6C                       l2102 0F55                       l2030 0E05  
                     l2022 0DF5                       l2014 0DE5                       l2006 0DD0  
                     l2120 0F7F                       l2112 0F70                       l2104 0F5A  
                     l2040 0E19                       l2032 0E09                       l2024 0DF9  
                     l2016 0DE9                       l2008 0DD1                       l3010 07F7  
                     l3002 07E2                       l2130 0F90                       l2114 0F75  
                     l2122 0F81                       l2050 0E3D                       l2042 0E1D  
                     l2034 0E0D                       l2026 0DFD                       l2018 0DED  
                     l3004 07E5                       l3020 0811                       l3012 0801  
                     l2140 0FAF                       l2116 0F78                       l2108 0F63  
                     l2124 0F85                       l2060 0E6D                       l2052 0E5D  
                     l2044 0E21                       l2036 0E11                       l2028 0E01  
                     l3006 07EB                       l3014 0804                       l2150 0FE8  
                     l2142 0FCD                       l2134 0F98                       l2126 0F86  
                     l2118 0F7A                       l2062 0E76                       l2054 0E66  
                     l2038 0E15                       l2046 0E25                       l2310 14D0  
                     l3110 173B                       l3102 1722                       l3030 1510  
                     l3022 14F4                       l3008 07EE                       l3016 080A  
                     l3040 160F                       l2400 0AB4                       l2320 09BA  
                     l3200 0701                       l3120 048D                       l2160 0FFE  
                     l2152 0FE9                       l2144 0FD6                       l2136 0F9D  
                     l2128 0F8A                       l2080 0EBC                       l2072 0E94  
                     l2056 0E68                       l2064 0E7A                       l2048 0E26  
                     l2312 14D4                       l3112 174B                       l3104 1734  
                     l3032 1516                       l3024 14F6                       l3018 080D  
                     l3050 1623                       l3042 1614                       l2410 0ACC  
                     l2402 0ABC                       l2330 09D1                       l2322 09BE  
                     l3210 0726                       l3202 070F                       l3130 04A4  
                     l3122 0491                       l2154 0FED                       l2146 0FDB  
                     l2138 0FAB                       l2082 0EBE                       l2074 0EAB  
                     l2066 0E86                       l2090 0ED1                       l2058 0E6C  
                     l3114 1750                       l3026 14FC                       l3060 1639  
                     l3052 1625                       l3044 1616                       l3036 1608  
                     l2420 0AE4                       l2412 0AD5                       l2404 0ABE  
                     l2340 09E7                       l2332 09D2                       l2324 09BF  
                     l2316 09AD                       l2260 1796                       l3220 0749  
                     l3204 0718                       l3212 072C                       l3140 04BD  
                     l3132 04A6                       l3124 0492                       l3116 0480  
                     l2156 0FEF                       l2148 0FE3                       l2092 0EE7  
                     l2084 0EC2                       l2076 0EAF                       l2068 0E8B  
                     l3028 1509                       l3300 003C                       l3070 165C  
                     l3062 163D                       l3054 162B                       l3046 161A  
                     l3038 160B                       l2430 0B13                       l2422 0AF8  
                     l2406 0AC7                       l2414 0ADB                       l2350 09FE  
                     l2342 09EB                       l2326 09C4                       l2334 09D4  
                     l2318 09B4                       l2270 17FE                       l2262 179A  
                     l2254 175C                       l3230 0768                       l3214 0730  
                     l3206 071C                       l3150 04D2                       l3142 04BE  
                     l3134 04AE                       l3126 0497                       l3118 0487  
                     l2158 0FFA                       l2094 0F25                       l2086 0EC3  
                     l2078 0EB3                       l3310 00BD                       l3302 0055  
                     l3064 164E                       l3056 162E                       l3072 1662  
                     l3048 161F                       l2440 0B51                       l2432 0B17  
                     l2416 0ADF                       l2408 0ACB                       l2360 0A21  
                     l2352 09FF                       l2344 09EC                       l2336 09DC  
                     l2328 09C9                       l2264 17BE                       l2256 1772  
                     l3240 07AE                       l3232 0781                       l3224 0751  
                     l3216 0731                       l3208 071D                       l3160 04ED  
                     l3152 04DA                       l3144 04C3                       l3136 04B3  
                     l3128 049C                       l2096 0F2B                       l2088 0ECC  
                     l3080 16E0                       l2600 08F9                       l3320 00DC  
                     l3304 0094                       l3312 00C3                       l3400 0BA6  
                     l3074 1667                       l3066 1654                       l3058 1635  
                     l2450 0B77                       l2442 0B60                       l2434 0B30  
                     l2426 0B00                       l2418 0AE0                       l2370 0A38  
                     l2346 09F1                       l2354 0A01                       l2338 09E1  
                     l2266 17C2                       l2258 178E                       l3250 07CD  
                     l3242 07B8                       l3226 0756                       l3234 0787  
                     l3218 0735                       l3170 056F                       l3162 04FD  
                     l3154 04DF                       l3146 04C8                       l3138 04B9  
                     l2098 0F30                       l3090 170C                       l3082 16ED  
                     l2610 0926                       l2602 08FD                       l3330 0201  
                     l3322 00FD                       l3314 00CC                       l3306 00A1  
                     l3410 0BB9                       l3402 0BB2                       l3260 152A  
                     l3076 166C                       l3068 1655                       l2452 0B79  
                     l2444 0B64                       l2428 0B05                       l2436 0B36  
                     l2380 0A64                       l2372 0A4A                       l2356 0A11  
                     l2364 0A2A                       l2348 09F6                       l2268 17FC  
                     l3252 07D8                       l3244 07BA                       l3236 0794  
                     l3228 0764                       l3180 05DD                       l3172 058B  
                     l3164 050A                       l3156 04E4                       l3148 04D0  
                     l3092 1714                       l2620 0951                       l2612 092B  
                     l2604 090D                       l3340 0229                       l3332 0209  
                     l3324 0103                       l3316 00D2                       l3308 00AA  
                     l3420 0BCD                       l3412 0BBA                       l3404 0BB4  
                     l3262 1538                       l3270 14B2                       l2446 0B6C  
                     l2438 0B43                       l2382 0A69                       l2390 0A89  
                     l2374 0A52                       l2366 0A2F                       l2358 0A1D  
                     l3246 07C8                       l3238 079F                       l3190 066D  
                     l3182 05ED                       l3174 05A7                       l3166 0527  
                     l3094 1716                       l3086 16F6                       l2630 0984  
                     l2622 0961                       l2614 0938                       l2606 091D  
                     l3350 025D                       l3342 0231                       l3334 020F  
                     l3326 0119                       l3318 00D7                       l3430 0C00  
                     l3422 0BD6                       l3414 0BBB                       l3406 0BB7  
                     l3264 153E                       l3256 151B                       l3272 14B7  
                     l3280 1560                       l2448 0B73                       l2392 0A9B  
                     l2384 0A7B                       l2376 0A5A                       l3248 07CC  
                     l3192 067D                       l3184 060A                       l3176 05B0  
                     l3168 0543                       l3096 171A                       l3088 170B  
                     l2632 099A                       l2624 096C                       l2616 093F  
                     l3360 0317                       l3352 0273                       l3344 0231  
                     l3328 01E3                       l3336 0213                       l3440 0C22  
                     l3432 0C06                       l3424 0BE2                       l3416 0BC0  
                     l3408 0BB8                       l3266 149F                       l3258 1521  
                     l3274 14BE                       l3282 1565                       l2394 0A9C  
                     l2386 0A7F                       l2378 0A62                       l3194 06AA  
                     l3186 0623                       l3178 05C0                       l2634 099F  
                     l2626 0970                       l2618 0943                       l3370 0332  
                     l3362 031D                       l3354 0302                       l3346 0236  
                     l3338 0219                       l3290 0034                       l2650 15D2  
                     l2642 15A7                       l3450 0C41                       l3442 0C2A  
                     l3434 0C0D                       l3426 0BEB                       l3418 0BC5  
                     l3276 14C4                       l3268 14AD                       l3284 1581  
                     l2396 0AAA                       l2388 0A80                       l3196 06D0  
                     l3188 0640                       l2636 09A3                       l2628 097A  
                     l3380 0457                       l3372 0353                       l3364 0322  
                     l3356 030A                       l3348 0257                       l3292 0034  
                     l2652 15D8                       l3460 0D43                       l3452 0C49  
                     l3444 0C30                       l3436 0C15                       l3428 0BF7  
                     l3278 14C9                       l3286 1589                       l2398 0AAE  
                     l3198 06F8                       l2638 09A4                       l3382 045F  
                     l3374 0359                       l3366 0328                       l3358 0317  
                     l3294 0036                       l2654 15DD                       l2646 15B7  
                     l3462 0D4B                       l3454 0CB4                       l3446 0C34  
                     l3438 0C1B                       l3390 0B8A                       l3560 08B8  
                     l3384 0465                       l3376 036F                       l3368 032D  
                     l3296 0038                       l3288 0021                       l2648 15CD  
                     l2672 16AB                       l3464 0D54                       l3456 0CC6  
                     l3448 0C37                       l3392 0B8D                       l2682 08B0  
                     l1970 0D7F                       l3378 0439                       l3386 0469  
                     l3298 003C                       l2658 15F1                       l3554 16B3  
                     l3466 0D60                       l3458 0D31                       l3394 0B91  
                     l1980 0D94                       l1972 0D85                       l3388 046F  
                     l3556 15BF                       l2668 1672                       l3468 0D69  
                     l3396 0B9A                       l2678 083F                       l1990 0DAC  
                     l1982 0D9C                       l1974 0D89                       l2598 08F4  
                     l3558 15F9                       l3398 0BA0                       l1992 0DB2  
                     l1984 0D9D                       l1976 0D8A                       l1968 0D78  
                     l1994 0DB3                       l1978 0D8F                       l1986 0D9F  
                     l1996 0DB9                       l1988 0DA7                       l2990 081A  
                     l1998 0DBD                       l2992 0821                       l2986 148B  
                     l2994 0825                       l2996 0834                       l2988 0818  
                     l2998 0839                       STR_1 1010                       STR_2 1013  
                     STR_3 1016                       u2000 0E46                       u2001 0E44  
                     u2010 0E47                       u2100 0EB3                       u2020 0E5D  
                     u2101 0EB2                       u2021 0E5C                       u2110 0EC2  
                     u2030 0E6C                       u2111 0EC1                       u2031 0E6B  
                     u2200 0F70                       u2201 0F6F                       u2210 0F75  
                     u2130 0EE7                       u2050 0E82                       u2211 0F74  
                     u2131 0EE6                       u2051 0E81                       u2300 0FCD  
                     u2220 0F7F                       u2060 0E86                       u2301 0FCC  
                     u2221 0F7E                       u2141 0EFE                       u2133 0EE3  
                     u2125 0EC5                       u2061 0E85                       u2045 0E6F  
                     u2310 0FD6                       u2230 0F85                       u2150 0F12  
                     u2142 0EFF                       u2070 0E8B                       u2311 0FD5  
                     u2231 0F84                       u2151 0F13                       u2143 0F04  
                     u2071 0E8A                       u4000 04C8                       u2320 0FDB  
                     u2240 0F8A                       u2160 0F30                       u2152 0F18  
                     u2144 0F05                       u4001 04C7                       u2321 0FDA  
                     u2241 0F89                       u2161 0F2F                       u2153 0F19  
                     u2145 0F0A                       u2081 0E9D                       u4010 04DF  
                     u2330 0FE8                       u2250 0F90                       u2170 0F55  
                     u2146 0F0B                       u2090 0EAF                       u2082 0EA4  
                     u4011 04DE                       u2331 0FE7                       u2251 0F8F  
                     u2171 0F54                       u2091 0EAE                       u2083 0EAB  
                     u4020 04E4                       u2340 0FED                       u2260 0F97  
                     u2180 0F5A                       u4021 04E3                       u2341 0FEC  
                     u2261 0F96                       u2181 0F59                       u2350 0FFE  
                     u2270 0F9D                       u4111 0632                       u4031 0535  
                     u2351 0FFD                       u2271 0F9C                       u4200 071C  
                     u4112 0639                       u4032 053C                       u2280 0FAF  
                     u3400 093E                       u4201 071B                       u4121 065F  
                     u4113 0640                       u4105 060C                       u4041 0551  
                     u4033 0543                       u2281 0FAE                       u3401 093D  
                     u2530 1772                       u4122 0666                       u4042 0558  
                     u2290 0FBE                       u2531 1771                       u4131 068C  
                     u4123 066D                       u4051 057D                       u4043 055F  
                     u2195 0F65                       u2700 09BE                       u2540 178E  
                     u4300 07AE                       u4220 0730                       u4140 06B6  
                     u4132 0693                       u4052 0584                       u1900 0D89  
                     u3420 0960                       u3500 15D2                       u2701 09BD  
                     u2541 178D                       u4301 07AD                       u4221 072F  
                     u4133 069A                       u4061 0599                       u4053 058B  
                     u1901 0D88                       u3421 095F                       u3501 15D1  
                     u2710 09C4                       u2550 179A                       u4310 07CC  
                     u4230 0735                       u4062 05A0                       u1910 0D8F  
                     u3510 15DD                       u2711 09C3                       u2551 1799  
                     u4311 07CB                       u4231 0734                       u4215 071F  
                     u4151 06C2                       u4063 05A7                       u2295 0FB9  
                     u1911 0D8E                       u3415 0952                       u3511 15DC  
                     u4320 14B2                       u2720 09C9                       u4240 0749  
                     u4160 06DE                       u4152 06C9                       u1920 0D94  
                     u3440 0970                       u3360 08F9                       u4400 0119  
                     u4321 14B1                       u2721 09C8                       u2561 17A9  
                     u4305 07AA                       u4241 0748                       u4153 06D0  
                     u4145 06B1                       u4081 05CF                       u1921 0D93  
                     u3441 096F                       u3361 08F8                       u4401 0118  
                     u4330 14C4                       u2810 0A7F                       u2730 09EB  
                     u2570 17C2                       u2562 17AA                       u4250 0750  
                     u4082 05D6                       u1930 0DB2                       u3450 0976  
                     u3370 08FD                       u4410 0219                       u4331 14C3  
                     u2811 0A7E                       u2731 09EA                       u2571 17C1  
                     u2563 17AF                       u4251 074F                       u4171 06EA  
                     u4091 05FC                       u4083 05DD                       u4075 05A9  
                     u1931 0DB1                       u3451 0975                       u3435 0965  
                     u3371 08FC                       u4411 0218                       u4340 156F  
                     u2900 0AE4                       u2740 09F1                       u2564 17B0  
                     u3700 0839                       u4260 0756                       u4172 06F1  
                     u4092 0603                       u1940 0DBD                       u3460 097A  
                     u3380 091D                       u4420 0273                       u2901 0AE3  
                     u2805 0A74                       u2741 09F0                       u2581 17D1  
                     u2565 17B5                       u3701 0838                       u4261 0755  
                     u4173 06F8                       u4165 06D9                       u4093 060A  
                     u1941 0DBC                       u3461 0979                       u3381 091C  
                     u4421 0272                       u4405 0115                       u4350 1593  
                     u2910 0AF8                       u2830 0A9B                       u2750 09F6  
                     u2590 17FC                       u2582 17D2                       u2566 17B6  
                     u4270 0768                       u1950 0DC3                       u3710 14FC  
                     u3470 098F                       u4430 0328                       u2911 0AF7  
                     u2831 0A9A                       u2751 09F5                       u2591 17FB  
                     u2583 17D7                       u4271 0767                       u1951 0DC2  
                     u3711 14FB                       u4431 0327                       u4360 15A5  
                     u2920 0AFF                       u2840 0AB4                       u2760 0A11  
                     u2584 17D8                       u4280 0777                       u1960 0DC8  
                     u3480 099F                       u4440 036F                       u4361 15A4  
                     u2921 0AFE                       u2841 0AB3                       u2825 0A82  
                     u2761 0A10                       u2585 17DD                       u4185 06FA  
                     u1961 0DC7                       u3481 099E                       u4441 036E  
                     u4425 026F                       u3810 164E                       u2930 0B05  
                     u2850 0ABC                       u2770 0A2F                       u2586 17DE  
                     u4290 0794                       u1970 0DE1                       u3490 09A3  
                     u4450 046F                       u4370 0055                       u4507 1525  
                     u3811 164D                       u2931 0B04                       u2851 0ABB  
                     u2835 0A97                       u2771 0A2E                       u2595 17F8  
                     u4291 0793                       u4195 0711                       u1971 0DE0  
                     u3491 09A2                       u3475 098A                       u3395 0930  
                     u4451 046E                       u4371 0054                       u2940 0B17  
                     u2780 0A69                       u1980 0DE5                       u3900 1733  
                     u3740 1516                       u4380 00CB                       u4460 0C06  
                     u4517 1534                       u3805 163E                       u2941 0B16  
                     u2781 0A68                       u4285 0772                       u1981 0DE4  
                     u3901 1732                       u3741 1515                       u3725 1503  
                     u4445 036B                       u4381 00CA                       u4461 0C05  
                     u3830 1662                       u3750 160F                       u2950 0B26  
                     u2870 0ACB                       u1990 0E3D                       u3910 173A  
                     u4390 00D2                       u4470 0C0D                       u4527 1542  
                     u3831 1661                       u3815 164A                       u3751 160E  
                     u2871 0ACA                       u4295 0790                       u1991 0E3C  
                     u3911 1739                       u3735 150A                       u4391 00D1  
                     u4471 0C0C                       u3840 1667                       u3760 161A  
                     u2960 0B43                       u3680 0825                       u4537 07F2  
                     u3841 1666                       u3825 1656                       u3761 1619  
                     u2961 0B42                       u2865 0AC0                       u3681 0824  
                     u3770 162B                       u2970 0B60                       u2890 0ADF  
                     u3930 174B                       u3850 16ED                       u3771 162A  
                     u2971 0B5F                       u2955 0B21                       u2891 0ADE  
                     u2795 0A6B                       u1995 0E39                       u3931 174A  
                     u3851 16EC                       u2980 0B77                       u3940 1750  
                     u3860 1704                       u2981 0B76                       u2965 0B3F  
                     u2885 0ACE                       u3941 174F                       u3925 173D  
                     u3790 163D                       u3950 0491                       u3870 171A  
                     u3791 163C                       u2975 0B5C                       u3695 082C  
                     u3951 0490                       u3871 1719                       u4487 0D6F  
                     u3960 0497                       u3880 1721                       u4497 080F  
                     u3785 162F                       u3961 0496                       u3881 1720  
                     u3865 16FF                       u3970 049C                       i1l67 1490  
                     u3971 049B                       u3980 04BD                       u3981 04BC  
                     u3990 04C3                       u3991 04C2                       u3895 1723  
                     _adc0 00B3                       _adc1 00A9          ?_Lcd_Write_String 0075  
                     _main 0B8A                       btemp 007E                       start 000C  
       ??_Lcd_Write_String 0077            ___fldiv@new_exp 0049            __end_of_Lcd_Cmd 07FB  
                    ??_ISR 0070              ___fltol@sign1 0076            __end_of___fladd 1000  
                    ?_main 0070            __end_of___fldiv 0B8A            __end_of___awdiv 1671  
          __end_of___flmul 07E1            __end_of___flsub 14F4            __end_of___fltol 175C  
                    _ANSEL 0188            ___awdiv@divisor 0072            ___awdiv@counter 0020  
                    _RCREG 001A                      _SPBRG 0099                      _PORTA 0005  
                    _PORTB 0006                      _PORTC 0007                      _PORTD 0008  
                    _PORTE 0009    __size_of_Lcd_Set_Cursor 0024                      _TRISA 0085  
                    _TRISB 0086                      _TRISC 0087                      _TRISD 0088  
                    _TRISE 0089                      _TXREG 0019                convert@data 00C7  
              convert@temp 00C3            __end_of_convert 0480                      _conv0 00A4  
                    _conv1 00A0                      pclath 000A                      status 0003  
                    wtemp0 007E           __end_of_Lcd_Init 1560           __end_of_Lcd_Port 1490  
          __initialization 000F               __end_of_main 0D78                     ??_main 00D2  
       __size_of_Lcd_Clear 000D                     _ADRESH 001E           ___awdiv@dividend 0074  
                   _ANSELH 0189                  ??_Lcd_Cmd 0073    __size_of_Lcd_Write_Char 0015  
         __end_of___xxtofl 09AD                     ___flge 175C               convert@place 00C1  
                ??___fladd 0020                     ___wmul 14F4                  ??___fldiv 003F  
                ??___awdiv 0076                  ??___flmul 0059                  ??___flsub 007A  
                ??___fltol 0020         __size_of_Select_ch 00B3           ___awdiv@quotient 0022  
             start_adc@isr 0072                  ??_convert 006B         __size_of__Umul8_16 0029  
                   saved_w 007E           __end_of_start_ch 16E0            Lcd_Set_Cursor@a 0078  
          Lcd_Set_Cursor@b 0076                 ___flge@ff1 0072                 ___flge@ff2 0076  
             ___xxtofl@arg 0033               ___xxtofl@exp 0032               ___xxtofl@val 0029  
  __end_of__initialization 001A          __end_of_Lcd_Clear 14AC                 ___fltol@f1 0072  
           __pcstackCOMMON 0070             _Lcd_Set_Cursor 14AC                  ?_Lcd_Init 0070  
                ?_Lcd_Port 0070          __end_of_Select_ch 08F1                 __pbssBANK1 00A0  
        __end_of__Umul8_16 083E                 __pmaintext 0B8A                    ?___flge 0072  
                  ?___wmul 0025                 __pintentry 0004  __size_of_Lcd_Write_String 0046  
   __end_of_Lcd_Set_Cursor 14D0                  ?___xxtofl 0029                 ??_Lcd_Init 0076  
               ??_Lcd_Port 0072         __size_of_start_adc 0062                 __stringtab 1000  
           _Lcd_Write_Char 0800                    _Lcd_Cmd 07E1              convert@digits 00CE  
          __size_of___flge 00A4                    ___fladd 0D78                    ___fldiv 09AD  
                  ___awdiv 1608                    ___flmul 0480                    ___flsub 14D0  
                  ___fltol 16E0            __size_of___wmul 0027                  ?_start_ch 0070  
                _ANSELbits 0188            ?_Lcd_Set_Cursor 0076                    __ptext1 1671  
                  __ptext2 15A6                    __ptext3 001E                    __ptext4 08F1  
                  __ptext5 14F4                    __ptext6 16E0                    __ptext7 14D0  
                  __ptext8 0D78                    __ptext9 0480                    _convert 001E  
             __size_of_ISR 0007           Select_ch@channel 0074                 ??___xxtofl 002D  
            start_adc@Vref 0073              start_adc@frec 0077                    clrloop0 1498  
   __end_of_Lcd_Write_Char 0815       end_of_initialization 001A                  _RCSTAbits 0018  
                Lcd_Port@a 0072          __end_of_start_adc 1608                 ??_start_ch 0072  
                _PORTDbits 0008                ___fladd@grs 002B              ___xxtofl@sign 0031  
                _TRISCbits 0087                ___fldiv@grs 004B                ___fldiv@rem 0044  
          ?_Lcd_Write_Char 0070          Lcd_Write_String@a 0075          Lcd_Write_String@i 0020  
              ___flmul@grs 0060                  _TXSTAbits 0098                  _Lcd_Clear 149F  
           __end_of___flge 1800             __end_of___wmul 151B           _Lcd_Write_String 1560  
      start_initialization 000F                __end_of_ISR 1497          __size_of_Lcd_Init 0045  
        __size_of_Lcd_Port 0006                  _Select_ch 083E                 ?_Lcd_Clear 0070  
                 ??___flge 0020                   ??___wmul 0078                  __Umul8_16 0815  
          Lcd_Write_Char@a 0074                  ___fladd@a 0076                  ___fladd@b 0072  
                ___fldiv@a 0037                  ___fldiv@b 003B                  ___flmul@a 0055  
                ___flmul@b 0051                __pbssCOMMON 007A                  ___flsub@a 0037  
                ___flsub@b 003B                  ___latbits 0002              __pcstackBANK0 0020  
            __pcstackBANK1 00BD          __size_of___xxtofl 00BC                  _canal_act 00A8  
                 ?_Lcd_Cmd 0070                 ?_Select_ch 0070           ??_Lcd_Set_Cursor 0077  
                 ?___fladd 0072                   ?___fldiv 0037                   ?___awdiv 0072  
                 ?___flmul 0051                   ?___flsub 0037                   ?___fltol 0072  
               ?__Umul8_16 0072                  __pstrings 1000          __size_of_start_ch 006F  
                 ?_convert 00BD          interrupt_function 0004             ___wmul@product 0078  
                clear_ram0 1497                   _PIE1bits 008C            start_ch@channel 0074  
                 Lcd_Cmd@a 0075                   _PIR1bits 000C                ??_Lcd_Clear 0076  
          start_adc@justRL 0074                 _ADCON0bits 001F                __stringbase 100F  
               _ADCON1bits 009F          ___wmul@multiplier 0025                  _start_adc 15A6  
         ??_Lcd_Write_Char 0073                   _Lcd_Init 151B                   _Lcd_Port 148A  
                convert@mu 00D0   __end_of_Lcd_Write_String 15A6           __size_of_Lcd_Cmd 001A  
              ??_Select_ch 0072                ??__Umul8_16 0074           __size_of___fladd 0288  
         __size_of___fldiv 01DD           __size_of___awdiv 0069           __size_of___flmul 0361  
         __size_of___flsub 0024           __size_of___fltol 007C         __end_of__stringtab 1010  
               ?_start_adc 0072                 _ANSELHbits 0189           __size_of_convert 0462  
                 ___xxtofl 08F1                   __ptext10 0815                   __ptext11 175C  
                 __ptext20 07E1                   __ptext12 09AD                   __ptext21 148A  
                 __ptext13 1608                   __ptext22 1490                   __ptext14 083E  
                 __ptext15 1560                   __ptext16 0800                   __ptext17 14AC  
                 __ptext18 151B                   __ptext19 149F              __size_of_main 01EE  
                 _var_adc0 007B                   _var_adc1 007A                   _start_ch 1671  
                 convert@a 00BD                   convert@i 00CC                   convert@j 00C5  
                 convert@x 00C8                 _INTCONbits 000B                   intlevel1 0000  
                stringcode 100A         Lcd_Set_Cursor@temp 0079                ??_start_adc 0075  
   __Umul8_16@multiplicand 0072                   stringdir 100A                   stringtab 1000  
            ___fladd@signs 0028               ___fladd@aexp 0029               ___fladd@bexp 002A  
     __Umul8_16@multiplier 0024          __Umul8_16@product 0020  
